
projects/lab1/out/lab1.elf:     file format elf32-littlearm
projects/lab1/out/lab1.elf
architecture: armv7e-m, flags 0x00000112:
EXEC_P, HAS_SYMS, D_PAGED
start address 0x1a0005a5

Program Header:
0x70000001 off    0x00012948 vaddr 0x1a002948 paddr 0x1a002948 align 2**2
         filesz 0x00000008 memsz 0x00000008 flags r--
    LOAD off    0x0000009c vaddr 0x1000009c paddr 0x1000009c align 2**16
         filesz 0x00000000 memsz 0x00000024 flags rw-
    LOAD off    0x00010000 vaddr 0x1a000000 paddr 0x1a000000 align 2**16
         filesz 0x00002950 memsz 0x00002950 flags rwx
    LOAD off    0x00020000 vaddr 0x10000000 paddr 0x1a002950 align 2**16
         filesz 0x0000009c memsz 0x0000009c flags rw-
private flags = 0x5000400: [Version5 EABI] [hard-float ABI]

Sections:
Idx Name          Size      VMA       LMA       File off  Algn
  0 .text         00000300  1a000000  1a000000  00010000  2**2
                  CONTENTS, ALLOC, LOAD, READONLY, CODE
  1 .data         0000009c  10000000  1a002950  00020000  2**2
                  CONTENTS, ALLOC, LOAD, DATA
  2 .data_RAM2    00000000  10080000  10080000  0002009c  2**2
                  CONTENTS
  3 .data_RAM3    00000000  20000000  20000000  0002009c  2**2
                  CONTENTS
  4 .data_RAM4    00000000  20008000  20008000  0002009c  2**2
                  CONTENTS
  5 .data_RAM5    00000000  2000c000  2000c000  0002009c  2**2
                  CONTENTS
  6 .bss          00000024  1000009c  1000009c  0001009c  2**2
                  ALLOC
  7 .bss_RAM2     00000000  10080000  10080000  0002009c  2**2
                  CONTENTS
  8 .bss_RAM3     00000000  20000000  20000000  0002009c  2**2
                  CONTENTS
  9 .bss_RAM4     00000000  20008000  20008000  0002009c  2**2
                  CONTENTS
 10 .bss_RAM5     00000000  2000c000  2000c000  0002009c  2**2
                  CONTENTS
 11 .init_array   00000004  1a000300  1a000300  00010300  2**2
                  CONTENTS, ALLOC, LOAD, DATA
 12 .text         00002638  1a000310  1a000310  00010310  2**4
                  CONTENTS, ALLOC, LOAD, READONLY, CODE
 13 .ARM.exidx    00000008  1a002948  1a002948  00012948  2**2
                  CONTENTS, ALLOC, LOAD, READONLY, DATA
 14 .uninit_RESERVED 00000000  10000000  10000000  0002009c  2**2
                  CONTENTS
 15 .noinit_RAM2  00000000  10080000  10080000  0002009c  2**2
                  CONTENTS
 16 .noinit_RAM3  00000000  20000000  20000000  0002009c  2**2
                  CONTENTS
 17 .noinit_RAM4  00000000  20008000  20008000  0002009c  2**2
                  CONTENTS
 18 .noinit_RAM5  00000000  2000c000  2000c000  0002009c  2**2
                  CONTENTS
 19 .noinit       00000000  100000c0  100000c0  00000000  2**2
                  ALLOC
 20 .debug_info   0000f6dc  00000000  00000000  0002009c  2**0
                  CONTENTS, READONLY, DEBUGGING, OCTETS
 21 .debug_abbrev 00002c9b  00000000  00000000  0002f778  2**0
                  CONTENTS, READONLY, DEBUGGING, OCTETS
 22 .debug_loclists 00004de7  00000000  00000000  00032413  2**0
                  CONTENTS, READONLY, DEBUGGING, OCTETS
 23 .debug_aranges 00000848  00000000  00000000  00037200  2**3
                  CONTENTS, READONLY, DEBUGGING, OCTETS
 24 .debug_rnglists 000006c0  00000000  00000000  00037a48  2**0
                  CONTENTS, READONLY, DEBUGGING, OCTETS
 25 .debug_macro  00009119  00000000  00000000  00038108  2**0
                  CONTENTS, READONLY, DEBUGGING, OCTETS
 26 .debug_line   0000ab20  00000000  00000000  00041221  2**0
                  CONTENTS, READONLY, DEBUGGING, OCTETS
 27 .debug_str    0001e849  00000000  00000000  0004bd41  2**0
                  CONTENTS, READONLY, DEBUGGING, OCTETS
 28 .comment      0000001e  00000000  00000000  0006a58a  2**0
                  CONTENTS, READONLY
 29 .ARM.attributes 00000032  00000000  00000000  0006a5a8  2**0
                  CONTENTS, READONLY
 30 .debug_frame  000018ec  00000000  00000000  0006a5dc  2**2
                  CONTENTS, READONLY, DEBUGGING, OCTETS
 31 .debug_line_str 0000004e  00000000  00000000  0006bec8  2**0
                  CONTENTS, READONLY, DEBUGGING, OCTETS
SYMBOL TABLE:
1a000000 l    d  .text	00000000 .text
10000000 l    d  .data	00000000 .data
10080000 l    d  .data_RAM2	00000000 .data_RAM2
20000000 l    d  .data_RAM3	00000000 .data_RAM3
20008000 l    d  .data_RAM4	00000000 .data_RAM4
2000c000 l    d  .data_RAM5	00000000 .data_RAM5
1000009c l    d  .bss	00000000 .bss
10080000 l    d  .bss_RAM2	00000000 .bss_RAM2
20000000 l    d  .bss_RAM3	00000000 .bss_RAM3
20008000 l    d  .bss_RAM4	00000000 .bss_RAM4
2000c000 l    d  .bss_RAM5	00000000 .bss_RAM5
1a000300 l    d  .init_array	00000000 .init_array
1a000310 l    d  .text	00000000 .text
1a002948 l    d  .ARM.exidx	00000000 .ARM.exidx
10000000 l    d  .uninit_RESERVED	00000000 .uninit_RESERVED
10080000 l    d  .noinit_RAM2	00000000 .noinit_RAM2
20000000 l    d  .noinit_RAM3	00000000 .noinit_RAM3
20008000 l    d  .noinit_RAM4	00000000 .noinit_RAM4
2000c000 l    d  .noinit_RAM5	00000000 .noinit_RAM5
100000c0 l    d  .noinit	00000000 .noinit
00000000 l    d  .debug_info	00000000 .debug_info
00000000 l    d  .debug_abbrev	00000000 .debug_abbrev
00000000 l    d  .debug_loclists	00000000 .debug_loclists
00000000 l    d  .debug_aranges	00000000 .debug_aranges
00000000 l    d  .debug_rnglists	00000000 .debug_rnglists
00000000 l    d  .debug_macro	00000000 .debug_macro
00000000 l    d  .debug_line	00000000 .debug_line
00000000 l    d  .debug_str	00000000 .debug_str
00000000 l    d  .comment	00000000 .comment
00000000 l    d  .ARM.attributes	00000000 .ARM.attributes
00000000 l    d  .debug_frame	00000000 .debug_frame
00000000 l    d  .debug_line_str	00000000 .debug_line_str
00000000 l    df *ABS*	00000000 armv7m_startup.c
00000000 l    df *ABS*	00000000 vendor_interrupt.c
00000000 l    df *ABS*	00000000 crp.c
00000000 l    df *ABS*	00000000 i2c_18xx_43xx.c
10000000 l     O .data	00000038 i2c
00000000 l    df *ABS*	00000000 impure.c
1000003c l     O .data	00000060 impure_data
00000000 l    df *ABS*	00000000 system.c
100000a4 l     O .bss	00000004 heap_end.0
00000000 l    df *ABS*	00000000 configuracion.c
00000000 l    df *ABS*	00000000 lab1.c
1000009c l     O .bss	00000001 actualizar
100000a0 l     O .bss	00000004 contador.0
00000000 l    df *ABS*	00000000 led.c
00000000 l    df *ABS*	00000000 board.c
1a00083c l     F .text	00000048 Board_LED_Init
1a000884 l     F .text	00000044 Board_TEC_Init
1a0008c8 l     F .text	00000044 Board_GPIO_Init
1a00090c l     F .text	00000030 Board_ADC_Init
1a00093c l     F .text	00000038 Board_SPI_Init
1a000974 l     F .text	00000024 Board_I2C_Init
1a002740 l     O .text	00000008 GpioButtons
1a002748 l     O .text	0000000c GpioLeds
1a002754 l     O .text	00000012 GpioPorts
00000000 l    df *ABS*	00000000 board_sysinit.c
1a00276c l     O .text	00000004 InitClkStates
1a002770 l     O .text	00000074 pinmuxing
00000000 l    df *ABS*	00000000 adc_18xx_43xx.c
1a000ad8 l     F .text	00000014 Chip_ADC_GetClockIndex
1a000aec l     F .text	00000032 getClkDiv
00000000 l    df *ABS*	00000000 chip_18xx_43xx.c
00000000 l    df *ABS*	00000000 clock_18xx_43xx.c
1a000bb4 l     F .text	000000a8 pll_calc_divs
1a000c5c l     F .text	00000110 pll_get_frac
1a000d6c l     F .text	00000054 Chip_Clock_FindBaseClock
1a000fe4 l     F .text	00000022 Chip_Clock_GetDivRate
100000ac l     O .bss	00000008 audio_usb_pll_freq
1a0027ec l     O .text	0000006c periph_to_base
00000000 l    df *ABS*	00000000 gpio_18xx_43xx.c
00000000 l    df *ABS*	00000000 ssp_18xx_43xx.c
1a0011dc l     F .text	00000014 Chip_SSP_GetClockIndex
1a0011f0 l     F .text	00000018 Chip_SSP_GetPeriphClockIndex
00000000 l    df *ABS*	00000000 sysinit_18xx_43xx.c
1a002858 l     O .text	00000048 InitClkStates
00000000 l    df *ABS*	00000000 uart_18xx_43xx.c
1a0013ec l     F .text	0000002c Chip_UART_GetIndex
1a0028a0 l     O .text	00000008 UART_BClock
1a0028a8 l     O .text	00000008 UART_PClock
00000000 l    df *ABS*	00000000 sysinit.c
00000000 l    df *ABS*	00000000 _aeabi_uldivmod.o
00000000 l    df *ABS*	00000000 libgcc2.c
00000000 l    df *ABS*	00000000 _dvmd_tls.o
00000000 l    df *ABS*	00000000 init.c
00000000 l    df *ABS*	00000000 memset.c
00000000 l    df *ABS*	00000000 printf.c
00000000 l    df *ABS*	00000000 findfp.c
1a0018b8 l     F .text	00000048 std
00000000 l    df *ABS*	00000000 fwalk.c
00000000 l    df *ABS*	00000000 lock.c
00000000 l    df *ABS*	00000000 nano-mallocr.c
00000000 l    df *ABS*	00000000 nano-vfprintf.c
1a001b5c l     F .text	0000002e __sfputc_r
00000000 l    df *ABS*	00000000 stdio.c
00000000 l    df *ABS*	00000000 wbuf.c
00000000 l    df *ABS*	00000000 wsetup.c
00000000 l    df *ABS*	00000000 fflush.c
00000000 l    df *ABS*	00000000 makebuf.c
00000000 l    df *ABS*	00000000 lib_a-memchr.o
00000000 l    df *ABS*	00000000 mlock.c
00000000 l    df *ABS*	00000000 nano-mallocr.c
00000000 l    df *ABS*	00000000 nano-vfprintf_i.c
00000000 l    df *ABS*	00000000 
1a000304 l       .init_array	00000000 __init_array_end
1a000300 l       .bss_RAM5	00000000 __preinit_array_end
1a000300 l       .init_array	00000000 __init_array_start
1a000300 l       .bss_RAM5	00000000 __preinit_array_start
1a000e0c g     F .text	0000001c Chip_Clock_GetDividerSource
1a000644 g     F .text	00000012 _isatty_r
1a0001ba  w    F .text	00000002 TIMER2_IRQHandler
1a000656 g     F .text	0000000a _lseek_r
1a000184  w    F .text	00000002 DebugMon_Handler
1a0001ba  w    F .text	00000002 RIT_IRQHandler
1a080000 g       *ABS*	00000000 __top_MFlashA512
1a0001ba  w    F .text	00000002 ADCHS_IRQHandler
1a000114 g       .text	00000000 __section_table_start
1a0001ba  w    F .text	00000002 FLASH_EEPROM_IRQHandler
1a00051c g     F .text	00000004 sendByte
1a0001ba  w    F .text	00000002 I2C0_IRQHandler
1a001888 g     F .text	00000030 printf
1a000a2a g     F .text	00000008 __stdio_init
1a001e6a g     F .text	00000024 __sseek
1a001968 g     F .text	00000070 __sinit
1a001e98 g     F .text	000000a4 __swbuf_r
1a00017a  w    F .text	00000002 HardFault_Handler
1a00190c g     F .text	0000002c __sfmoreglue
1a000000 g       *ABS*	00000000 __vectors_start__
1a000b92 g     F .text	0000000c Chip_ADC_SetResolution
1a00231c g     F .text	0000000c __malloc_unlock
1a0003d8 g     F .text	0000005c SysTick_Handler
1a0005a0  w    F .text	00000002 initialise_monitor_handles
1a0001ba  w    F .text	00000002 SDIO_IRQHandler
1a0009d0 g     F .text	0000001c Board_UARTGetChar
1a0001ba  w    F .text	00000002 ATIMER_IRQHandler
1a000186  w    F .text	00000002 PendSV_Handler
1a000178  w    F .text	00000002 NMI_Handler
1a002950 g       .ARM.exidx	00000000 __exidx_end
1a000150 g       .text	00000000 __data_section_table_end
1a0001ba  w    F .text	00000002 I2C1_IRQHandler
1a0001ba  w    F .text	00000002 UART1_IRQHandler
1a0001ba  w    F .text	00000002 GPIO5_IRQHandler
1a0001ba  w    F .text	00000002 CAN1_IRQHandler
1a00063a g     F .text	0000000a _fstat_r
53ff72ea g       *ABS*	00000000 __valid_user_code_checksum
1a002950 g       .ARM.exidx	00000000 _etext
1a0001ba  w    F .text	00000002 USB1_IRQHandler
1a0001ba  w    F .text	00000002 I2S0_IRQHandler
1a0001ba  w    F .text	00000002 TIMER3_IRQHandler
1a00108c g     F .text	0000000c Chip_Clock_GetBaseClocktHz
1a0001ba  w    F .text	00000002 UART0_IRQHandler
1a0001a8 g     F .text	00000012 bss_init
1a0007d0 g     F .text	0000006c Led_Toggle
1a0001ba  w    F .text	00000002 SGPIO_IRQHandler
1a001900 g     F .text	0000000c _cleanup_r
1a001580 g     F .text	00000000 .hidden __aeabi_uldivmod
100000c0 g       .noinit	00000000 _noinit
100000a8 g     O .bss	00000004 SystemCoreClock
1a001418 g     F .text	00000054 Chip_UART_Init
1a0001ba  w    F .text	00000002 ADC0_IRQHandler
1a000180  w    F .text	00000002 UsageFault_Handler
1a001108 g     F .text	0000004c Chip_Clock_GetRate
1a0001ba  w    F .text	00000002 GPIO6_IRQHandler
1a000a60 g     F .text	0000006c Board_SetupClocking
20008000 g       *ABS*	00000000 __top_RamAHB32
1a0015b0 g     F .text	0000027a .hidden __udivmoddi4
1a0006d8 g     F .text	00000020 _sbrk_r
1a00273c g     O .text	00000004 ExtRateIn
1a0001ba  w    F .text	00000002 IntDefaultHandler
1a000300 g       .text	00000000 __CRP_WORD_END__
1a000660 g     F .text	0000004e _read_r
1a000764 g     F .text	0000006c Led_Off
1a000434 g     F .text	0000002e ConfigurarUART
1a0001ba  w    F .text	00000002 GPIO1_IRQHandler
1a00035c g     F .text	0000007c ConfigurarPuertosLaboratorio
1a0001ba  w    F .text	00000002 SSP0_IRQHandler
1a002948 g       .text	00000000 __exidx_start
1a0002fc g     O .text	00000004 CRP_WORD
100000b6 g     O .bss	00000001 __lock___sinit_recursive_mutex
1a002910 g     O .text	00000004 _global_impure_ptr
1a001830 g     F .text	00000048 __libc_init_array
1a0001ba  w    F .text	00000002 ADC1_IRQHandler
1a0009ec g     F .text	0000002c Board_Init
1a00062e  w    F .text	00000002 _init
1a0006f8 g     F .text	0000006c Led_On
1a000114 g       .text	00000000 __data_section_table
1a0001ba  w    F .text	00000002 RTC_IRQHandler
100000c0 g       .bss	00000000 _ebss
1a0001ba  w    F .text	00000002 TIMER0_IRQHandler
1a0005a4 g     F .text	00000088 Reset_Handler
20010000 g       *ABS*	00000000 __top_RamAHB_ETB16
1a0001ba  w    F .text	00000002 SPI_IRQHandler
1a0011a0 g     F .text	0000003c Chip_I2C_SetClockRate
1a0004e8 g     F .text	00000034 handleData
1a0001ba  w    F .text	00000002 LCD_IRQHandler
1a000dc0 g     F .text	0000004c Chip_Clock_EnableCrystal
100000b4 g     O .bss	00000001 __lock___malloc_recursive_mutex
10008000 g       *ABS*	00000000 __top_RamLoc32
1a00018a g     F .text	0000001e data_init
1a0001ba  w    F .text	00000002 TIMER1_IRQHandler
1a0028b0 g     O .text	00000020 __sf_fake_stderr
1a001178 g     F .text	00000028 Chip_I2C_Init
1a001aa6 g     F .text	00000002 __retarget_lock_release_recursive
1a0001ba  w    F .text	00000002 UART2_IRQHandler
1a000f7c g     F .text	00000068 Chip_Clock_GetMainPLLHz
1a001208 g     F .text	00000012 Chip_SSP_SetClockRate
1a001b8a g     F .text	00000024 __sfputs_r
1a0001ba  w    F .text	00000002 GPIO2_IRQHandler
1a001938 g     F .text	0000000c __sfp_lock_acquire
1a002270 g     F .text	00000000 memchr
1a002328 g     F .text	00000098 _free_r
1a001064 g     F .text	00000028 Chip_Clock_GetBaseClock
1000009c g       .bss	00000000 _bss
1a00046a g     F .text	0000002a UARTLeerByte
1a000b60 g     F .text	00000032 Chip_ADC_SetSampleRate
1a0001ba  w    F .text	00000002 I2S1_IRQHandler
1a00121a g     F .text	00000042 Chip_SSP_SetBitRate
1a001154 g     F .text	00000002 Chip_GPIO_Init
1a002768 g     O .text	00000004 OscRateIn
100000c0 g       .noinit	00000000 _end_noinit
10008000 g       *ABS*	00000000 _vStackTop
1a0001ba  w    F .text	00000002 SSP1_IRQHandler
1a000462 g     F .text	00000008 UARTDisponible
1a000178 g       .text	00000000 __bss_section_table_end
1a000630 g     F .text	0000000a _close_r
1a001f3c g     F .text	000000dc __swsetup_r
1a00182c  w    F .text	00000002 .hidden __aeabi_ldiv0
1a0019d8 g     F .text	0000008c __sfp
1a00195c g     F .text	0000000c __sinit_lock_release
1a001e10 g     F .text	00000022 __sread
1a0001ba  w    F .text	00000002 USB0_IRQHandler
1a0001ba  w    F .text	00000002 GPIO3_IRQHandler
1a002310 g     F .text	0000000c __malloc_lock
1a0009bc g     F .text	00000014 Board_UARTPutChar
1a0001ba  w    F .text	00000002 SCT_IRQHandler
1a002124 g     F .text	00000078 _fflush_r
1a000310 g     F .text	0000004c ConfigurarInterrupcion
1a0028d0 g     O .text	00000020 __sf_fake_stdin
1a000e28 g     F .text	0000001c Chip_Clock_GetDividerDivisor
1a0002fc g       .text	00000000 __CRP_WORD_START__
1a001aa4 g     F .text	00000002 __retarget_lock_acquire_recursive
1a001878 g     F .text	00000010 memset
1a00017c  w    F .text	00000002 MemManage_Handler
1a000520 g     F .text	00000080 main
1a001aa2 g     F .text	00000002 __retarget_lock_init_recursive
1a0001ba  w    F .text	00000002 WDT_IRQHandler
1a0004d4 g     F .text	00000014 handleError
2000c000 g       *ABS*	00000000 __top_RamAHB16
1008a000 g       *ABS*	00000000 __top_RamLoc40
1a000182  w    F .text	00000002 SVC_Handler
1a001e8e g     F .text	00000008 __sclose
1a001aa8 g     F .text	000000b4 _malloc_r
1a0001ba  w    F .text	00000002 GPIO7_IRQHandler
1a001098 g     F .text	0000003c Chip_Clock_EnableOpts
1a000a22 g     F .text	00000008 __stdio_getchar
1a000e44 g     F .text	000000b8 Chip_Clock_GetClockInputHz
1a000efc g     F .text	00000080 Chip_Clock_CalcMainPLLValue
1a001548 g     F .text	00000038 SystemInit
1a0001ba  w    F .text	00000002 SPIFI_IRQHandler
1a0001ba  w    F .text	00000002 QEI_IRQHandler
1a000150 g       .text	00000000 __bss_section_table
1a00062c  w    F .text	00000002 _fini
1a001888 g     F .text	00000030 iprintf
1a000b20 g     F .text	00000040 Chip_ADC_Init
1a000a34 g     F .text	0000002c Board_SetupMuxing
1a00146c g     F .text	000000dc Chip_UART_SetBaudFDR
1a0006ae g     F .text	00000028 _write_r
1a0001ba  w    F .text	00000002 ETH_IRQHandler
1a0023c0 g     F .text	000000da _printf_common
10000038 g     O .data	00000004 _impure_ptr
1a002018 g     F .text	0000010c __sflush_r
10000000 g       .uninit_RESERVED	00000000 _end_uninit_RESERVED
1a0001ba  w    F .text	00000002 CAN0_IRQHandler
10000000 g       .data	00000000 _data
100000c0 g       .bss	00000000 _pvHeapStart
1a000178 g       .text	00000000 __section_table_end
1a00125c g     F .text	00000038 Chip_SSP_Init
1a000494 g     F .text	00000040 translateError
1a0001ba  w    F .text	00000002 GINT0_IRQHandler
1a00219c g     F .text	0000004a __swhatbuf_r
1a0001ba  w    F .text	00000002 DAC_IRQHandler
1a000998 g     F .text	00000024 Board_Debug_Init
1a000a18 g     F .text	0000000a __stdio_putchar
1000009c g       .data	00000000 _edata
1a001158 g     F .text	00000020 Chip_I2C_EventHandler
1a0001ba  w    F .text	00000002 M0SUB_IRQHandler
1a001294 g     F .text	00000158 Chip_SetupCoreClock
1a001e32 g     F .text	00000038 __swrite
1a0001ba  w    F .text	00000002 GPIO0_IRQHandler
1a001bb0 g     F .text	00000260 _vfiprintf_r
1a000000 g     O .text	00000040 g_pfnVectors
1a001a64 g     F .text	0000003e _fwalk_reent
1a000ba0 g     F .text	00000014 SystemCoreClockUpdate
1a0001ba  w    F .text	00000002 DMA_IRQHandler
1a0001ba  w    F .text	00000002 EVRT_IRQHandler
1b080000 g       *ABS*	00000000 __top_MFlashB512
1a001944 g     F .text	0000000c __sfp_lock_release
1a0028f0 g     O .text	00000020 __sf_fake_stdout
1a00182c  w    F .text	00000002 .hidden __aeabi_idiv0
1a00017e  w    F .text	00000002 BusFault_Handler
1a0021e8 g     F .text	00000080 __smakebuf_r
1a00249c g     F .text	0000024c _printf_i
1a0010d4 g     F .text	00000034 Chip_Clock_Enable
1a0001ba  w    F .text	00000002 UART3_IRQHandler
100000bc g     O .bss	00000004 __malloc_sbrk_start
1a0001ba  w    F .text	00000002 MCPWM_IRQHandler
1a0001ba  w    F .text	00000002 M0APP_IRQHandler
100000b8 g     O .bss	00000004 __malloc_free_list
1a000040 g     O .text	000000d4 g_pfnVendorVectors
1a001bb0 g     F .text	00000260 _vfprintf_r
1a0001ba  w    F .text	00000002 GINT1_IRQHandler
1a001008 g     F .text	0000005c Chip_Clock_SetBaseClock
1a0001ba  w    F .text	00000002 GPIO4_IRQHandler
100000b5 g     O .bss	00000001 __lock___sfp_recursive_mutex
1a001950 g     F .text	0000000c __sinit_lock_acquire
1a000acc g     F .text	0000000c Board_SystemInit



Disassembly of section .text:

1a000000 <g_pfnVectors>:
1a000000:	00 80 00 10 a5 05 00 1a 79 01 00 1a 7b 01 00 1a     ........y...{...
1a000010:	7d 01 00 1a 7f 01 00 1a 81 01 00 1a ea 72 ff 53     }............r.S
	...
1a00002c:	83 01 00 1a 85 01 00 1a 00 00 00 00 87 01 00 1a     ................
1a00003c:	d9 03 00 1a                                         ....

1a000040 <g_pfnVendorVectors>:
1a000040:	bb 01 00 1a bb 01 00 1a bb 01 00 1a 00 00 00 00     ................
1a000050:	bb 01 00 1a bb 01 00 1a bb 01 00 1a bb 01 00 1a     ................
1a000060:	bb 01 00 1a bb 01 00 1a bb 01 00 1a bb 01 00 1a     ................
1a000070:	bb 01 00 1a bb 01 00 1a bb 01 00 1a bb 01 00 1a     ................
1a000080:	bb 01 00 1a bb 01 00 1a bb 01 00 1a bb 01 00 1a     ................
1a000090:	bb 01 00 1a bb 01 00 1a bb 01 00 1a bb 01 00 1a     ................
1a0000a0:	bb 01 00 1a bb 01 00 1a bb 01 00 1a bb 01 00 1a     ................
1a0000b0:	bb 01 00 1a bb 01 00 1a bb 01 00 1a bb 01 00 1a     ................
1a0000c0:	bb 01 00 1a bb 01 00 1a bb 01 00 1a bb 01 00 1a     ................
1a0000d0:	bb 01 00 1a bb 01 00 1a bb 01 00 1a bb 01 00 1a     ................
1a0000e0:	bb 01 00 1a bb 01 00 1a bb 01 00 1a bb 01 00 1a     ................
1a0000f0:	00 00 00 00 bb 01 00 1a bb 01 00 1a bb 01 00 1a     ................
1a000100:	00 00 00 00 bb 01 00 1a bb 01 00 1a bb 01 00 1a     ................
1a000110:	bb 01 00 1a                                         ....

1a000114 <__data_section_table>:
1a000114:	1a002950 	.word	0x1a002950
1a000118:	10000000 	.word	0x10000000
1a00011c:	0000009c 	.word	0x0000009c
1a000120:	1a002950 	.word	0x1a002950
1a000124:	10080000 	.word	0x10080000
1a000128:	00000000 	.word	0x00000000
1a00012c:	1a002950 	.word	0x1a002950
1a000130:	20000000 	.word	0x20000000
1a000134:	00000000 	.word	0x00000000
1a000138:	1a002950 	.word	0x1a002950
1a00013c:	20008000 	.word	0x20008000
1a000140:	00000000 	.word	0x00000000
1a000144:	1a002950 	.word	0x1a002950
1a000148:	2000c000 	.word	0x2000c000
1a00014c:	00000000 	.word	0x00000000

1a000150 <__bss_section_table>:
1a000150:	1000009c 	.word	0x1000009c
1a000154:	00000024 	.word	0x00000024
1a000158:	10080000 	.word	0x10080000
1a00015c:	00000000 	.word	0x00000000
1a000160:	20000000 	.word	0x20000000
1a000164:	00000000 	.word	0x00000000
1a000168:	20008000 	.word	0x20008000
1a00016c:	00000000 	.word	0x00000000
1a000170:	2000c000 	.word	0x2000c000
1a000174:	00000000 	.word	0x00000000

1a000178 <NMI_Handler>:
    }
}

__attribute__ ((section(".after_vectors")))
void NMI_Handler(void) {
    while (1) {
1a000178:	e7fe      	b.n	1a000178 <NMI_Handler>

1a00017a <HardFault_Handler>:
    }
}
__attribute__ ((section(".after_vectors")))
void HardFault_Handler(void) {
    while (1) {
1a00017a:	e7fe      	b.n	1a00017a <HardFault_Handler>

1a00017c <MemManage_Handler>:
    }
}
__attribute__ ((section(".after_vectors")))
void MemManage_Handler(void) {
    while (1) {
1a00017c:	e7fe      	b.n	1a00017c <MemManage_Handler>

1a00017e <BusFault_Handler>:
    }
}
__attribute__ ((section(".after_vectors")))
void BusFault_Handler(void) {
    while (1) {
1a00017e:	e7fe      	b.n	1a00017e <BusFault_Handler>

1a000180 <UsageFault_Handler>:
    }
}
__attribute__ ((section(".after_vectors")))
void UsageFault_Handler(void) {
    while (1) {
1a000180:	e7fe      	b.n	1a000180 <UsageFault_Handler>

1a000182 <SVC_Handler>:
    }
}
__attribute__ ((section(".after_vectors")))
void SVC_Handler(void) {
    while (1) {
1a000182:	e7fe      	b.n	1a000182 <SVC_Handler>

1a000184 <DebugMon_Handler>:
    }
}
__attribute__ ((section(".after_vectors")))
void DebugMon_Handler(void) {
    while (1) {
1a000184:	e7fe      	b.n	1a000184 <DebugMon_Handler>

1a000186 <PendSV_Handler>:
    }
}
__attribute__ ((section(".after_vectors")))
void PendSV_Handler(void) {
    while (1) {
1a000186:	e7fe      	b.n	1a000186 <PendSV_Handler>
    }
}
__attribute__ ((section(".after_vectors")))
void SysTick_Handler(void) {
    while (1) {
1a000188:	e7fe      	b.n	1a000188 <PendSV_Handler+0x2>

1a00018a <data_init>:
    for (loop = 0; loop < len; loop = loop + 4)
1a00018a:	2300      	movs	r3, #0
1a00018c:	4293      	cmp	r3, r2
1a00018e:	d20a      	bcs.n	1a0001a6 <data_init+0x1c>
void data_init(unsigned int romstart, unsigned int start, unsigned int len) {
1a000190:	b410      	push	{r4}
        *pulDest++ = *pulSrc++;
1a000192:	f850 4b04 	ldr.w	r4, [r0], #4
1a000196:	f841 4b04 	str.w	r4, [r1], #4
    for (loop = 0; loop < len; loop = loop + 4)
1a00019a:	3304      	adds	r3, #4
1a00019c:	4293      	cmp	r3, r2
1a00019e:	d3f8      	bcc.n	1a000192 <data_init+0x8>
}
1a0001a0:	f85d 4b04 	ldr.w	r4, [sp], #4
1a0001a4:	4770      	bx	lr
1a0001a6:	4770      	bx	lr

1a0001a8 <bss_init>:
    for (loop = 0; loop < len; loop = loop + 4)
1a0001a8:	2300      	movs	r3, #0
1a0001aa:	e003      	b.n	1a0001b4 <bss_init+0xc>
        *pulDest++ = 0;
1a0001ac:	2200      	movs	r2, #0
1a0001ae:	f840 2b04 	str.w	r2, [r0], #4
    for (loop = 0; loop < len; loop = loop + 4)
1a0001b2:	3304      	adds	r3, #4
1a0001b4:	428b      	cmp	r3, r1
1a0001b6:	d3f9      	bcc.n	1a0001ac <bss_init+0x4>
}
1a0001b8:	4770      	bx	lr

1a0001ba <ADC0_IRQHandler>:
    QEI_IRQHandler,           // 68
};

__attribute__ ((section(".after_vectors")))
void IntDefaultHandler(void) {
    while (1) {
1a0001ba:	e7fe      	b.n	1a0001ba <ADC0_IRQHandler>
1a0001bc:	ffff ffff 			; <UNDEFINED> instruction: 0xffffffff
1a0001c0:	ffff ffff 			; <UNDEFINED> instruction: 0xffffffff
1a0001c4:	ffff ffff 			; <UNDEFINED> instruction: 0xffffffff
1a0001c8:	ffff ffff 			; <UNDEFINED> instruction: 0xffffffff
1a0001cc:	ffff ffff 			; <UNDEFINED> instruction: 0xffffffff
1a0001d0:	ffff ffff 			; <UNDEFINED> instruction: 0xffffffff
1a0001d4:	ffff ffff 			; <UNDEFINED> instruction: 0xffffffff
1a0001d8:	ffff ffff 			; <UNDEFINED> instruction: 0xffffffff
1a0001dc:	ffff ffff 			; <UNDEFINED> instruction: 0xffffffff
1a0001e0:	ffff ffff 			; <UNDEFINED> instruction: 0xffffffff
1a0001e4:	ffff ffff 			; <UNDEFINED> instruction: 0xffffffff
1a0001e8:	ffff ffff 			; <UNDEFINED> instruction: 0xffffffff
1a0001ec:	ffff ffff 			; <UNDEFINED> instruction: 0xffffffff
1a0001f0:	ffff ffff 			; <UNDEFINED> instruction: 0xffffffff
1a0001f4:	ffff ffff 			; <UNDEFINED> instruction: 0xffffffff
1a0001f8:	ffff ffff 			; <UNDEFINED> instruction: 0xffffffff
1a0001fc:	ffff ffff 			; <UNDEFINED> instruction: 0xffffffff
1a000200:	ffff ffff 			; <UNDEFINED> instruction: 0xffffffff
1a000204:	ffff ffff 			; <UNDEFINED> instruction: 0xffffffff
1a000208:	ffff ffff 			; <UNDEFINED> instruction: 0xffffffff
1a00020c:	ffff ffff 			; <UNDEFINED> instruction: 0xffffffff
1a000210:	ffff ffff 			; <UNDEFINED> instruction: 0xffffffff
1a000214:	ffff ffff 			; <UNDEFINED> instruction: 0xffffffff
1a000218:	ffff ffff 			; <UNDEFINED> instruction: 0xffffffff
1a00021c:	ffff ffff 			; <UNDEFINED> instruction: 0xffffffff
1a000220:	ffff ffff 			; <UNDEFINED> instruction: 0xffffffff
1a000224:	ffff ffff 			; <UNDEFINED> instruction: 0xffffffff
1a000228:	ffff ffff 			; <UNDEFINED> instruction: 0xffffffff
1a00022c:	ffff ffff 			; <UNDEFINED> instruction: 0xffffffff
1a000230:	ffff ffff 			; <UNDEFINED> instruction: 0xffffffff
1a000234:	ffff ffff 			; <UNDEFINED> instruction: 0xffffffff
1a000238:	ffff ffff 			; <UNDEFINED> instruction: 0xffffffff
1a00023c:	ffff ffff 			; <UNDEFINED> instruction: 0xffffffff
1a000240:	ffff ffff 			; <UNDEFINED> instruction: 0xffffffff
1a000244:	ffff ffff 			; <UNDEFINED> instruction: 0xffffffff
1a000248:	ffff ffff 			; <UNDEFINED> instruction: 0xffffffff
1a00024c:	ffff ffff 			; <UNDEFINED> instruction: 0xffffffff
1a000250:	ffff ffff 			; <UNDEFINED> instruction: 0xffffffff
1a000254:	ffff ffff 			; <UNDEFINED> instruction: 0xffffffff
1a000258:	ffff ffff 			; <UNDEFINED> instruction: 0xffffffff
1a00025c:	ffff ffff 			; <UNDEFINED> instruction: 0xffffffff
1a000260:	ffff ffff 			; <UNDEFINED> instruction: 0xffffffff
1a000264:	ffff ffff 			; <UNDEFINED> instruction: 0xffffffff
1a000268:	ffff ffff 			; <UNDEFINED> instruction: 0xffffffff
1a00026c:	ffff ffff 			; <UNDEFINED> instruction: 0xffffffff
1a000270:	ffff ffff 			; <UNDEFINED> instruction: 0xffffffff
1a000274:	ffff ffff 			; <UNDEFINED> instruction: 0xffffffff
1a000278:	ffff ffff 			; <UNDEFINED> instruction: 0xffffffff
1a00027c:	ffff ffff 			; <UNDEFINED> instruction: 0xffffffff
1a000280:	ffff ffff 			; <UNDEFINED> instruction: 0xffffffff
1a000284:	ffff ffff 			; <UNDEFINED> instruction: 0xffffffff
1a000288:	ffff ffff 			; <UNDEFINED> instruction: 0xffffffff
1a00028c:	ffff ffff 			; <UNDEFINED> instruction: 0xffffffff
1a000290:	ffff ffff 			; <UNDEFINED> instruction: 0xffffffff
1a000294:	ffff ffff 			; <UNDEFINED> instruction: 0xffffffff
1a000298:	ffff ffff 			; <UNDEFINED> instruction: 0xffffffff
1a00029c:	ffff ffff 			; <UNDEFINED> instruction: 0xffffffff
1a0002a0:	ffff ffff 			; <UNDEFINED> instruction: 0xffffffff
1a0002a4:	ffff ffff 			; <UNDEFINED> instruction: 0xffffffff
1a0002a8:	ffff ffff 			; <UNDEFINED> instruction: 0xffffffff
1a0002ac:	ffff ffff 			; <UNDEFINED> instruction: 0xffffffff
1a0002b0:	ffff ffff 			; <UNDEFINED> instruction: 0xffffffff
1a0002b4:	ffff ffff 			; <UNDEFINED> instruction: 0xffffffff
1a0002b8:	ffff ffff 			; <UNDEFINED> instruction: 0xffffffff
1a0002bc:	ffff ffff 			; <UNDEFINED> instruction: 0xffffffff
1a0002c0:	ffff ffff 			; <UNDEFINED> instruction: 0xffffffff
1a0002c4:	ffff ffff 			; <UNDEFINED> instruction: 0xffffffff
1a0002c8:	ffff ffff 			; <UNDEFINED> instruction: 0xffffffff
1a0002cc:	ffff ffff 			; <UNDEFINED> instruction: 0xffffffff
1a0002d0:	ffff ffff 			; <UNDEFINED> instruction: 0xffffffff
1a0002d4:	ffff ffff 			; <UNDEFINED> instruction: 0xffffffff
1a0002d8:	ffff ffff 			; <UNDEFINED> instruction: 0xffffffff
1a0002dc:	ffff ffff 			; <UNDEFINED> instruction: 0xffffffff
1a0002e0:	ffff ffff 			; <UNDEFINED> instruction: 0xffffffff
1a0002e4:	ffff ffff 			; <UNDEFINED> instruction: 0xffffffff
1a0002e8:	ffff ffff 			; <UNDEFINED> instruction: 0xffffffff
1a0002ec:	ffff ffff 			; <UNDEFINED> instruction: 0xffffffff
1a0002f0:	ffff ffff 			; <UNDEFINED> instruction: 0xffffffff
1a0002f4:	ffff ffff 			; <UNDEFINED> instruction: 0xffffffff
1a0002f8:	ffff ffff 			; <UNDEFINED> instruction: 0xffffffff

1a0002fc <CRP_WORD>:
1a0002fc:	ffff ffff                                   ....

Disassembly of section .text:

1a000310 <ConfigurarInterrupcion>:
#include "configuracion.h"


void ConfigurarInterrupcion(void) {
1a000310:	b508      	push	{r3, lr}
   __asm__ volatile ("cpsid i");
1a000312:	b672      	cpsid	i

   /* Activate SysTick */
   SystemCoreClockUpdate();
1a000314:	f000 fc44 	bl	1a000ba0 <SystemCoreClockUpdate>
   SysTick_Config(SystemCoreClock/1000);
1a000318:	4b0d      	ldr	r3, [pc, #52]	; (1a000350 <ConfigurarInterrupcion+0x40>)
1a00031a:	681b      	ldr	r3, [r3, #0]
1a00031c:	4a0d      	ldr	r2, [pc, #52]	; (1a000354 <ConfigurarInterrupcion+0x44>)
1a00031e:	fba2 2303 	umull	r2, r3, r2, r3
1a000322:	099b      	lsrs	r3, r3, #6
           function <b>SysTick_Config</b> is not included. In this case, the file <b><i>device</i>.h</b>
           must contain a vendor-specific implementation of this function.
 */
__STATIC_INLINE uint32_t SysTick_Config(uint32_t ticks)
{
  if ((ticks - 1UL) > SysTick_LOAD_RELOAD_Msk)
1a000324:	3b01      	subs	r3, #1
1a000326:	f1b3 7f80 	cmp.w	r3, #16777216	; 0x1000000
1a00032a:	d20a      	bcs.n	1a000342 <ConfigurarInterrupcion+0x32>
  {
    return (1UL);                                                   /* Reload value impossible */
  }

  SysTick->LOAD  = (uint32_t)(ticks - 1UL);                         /* set reload register */
1a00032c:	f04f 22e0 	mov.w	r2, #3758153728	; 0xe000e000
1a000330:	6153      	str	r3, [r2, #20]
    SCB->SHP[(((uint32_t)IRQn) & 0xFUL)-4UL] = (uint8_t)((priority << (8U - __NVIC_PRIO_BITS)) & (uint32_t)0xFFUL);
1a000332:	4b09      	ldr	r3, [pc, #36]	; (1a000358 <ConfigurarInterrupcion+0x48>)
1a000334:	21e0      	movs	r1, #224	; 0xe0
1a000336:	f883 1023 	strb.w	r1, [r3, #35]	; 0x23
  NVIC_SetPriority (SysTick_IRQn, (1UL << __NVIC_PRIO_BITS) - 1UL); /* set Priority for Systick Interrupt */
  SysTick->VAL   = 0UL;                                             /* Load the SysTick Counter Value */
1a00033a:	2300      	movs	r3, #0
1a00033c:	6193      	str	r3, [r2, #24]
  SysTick->CTRL  = SysTick_CTRL_CLKSOURCE_Msk |
1a00033e:	2307      	movs	r3, #7
1a000340:	6113      	str	r3, [r2, #16]
    SCB->SHP[(((uint32_t)IRQn) & 0xFUL)-4UL] = (uint8_t)((priority << (8U - __NVIC_PRIO_BITS)) & (uint32_t)0xFFUL);
1a000342:	4b05      	ldr	r3, [pc, #20]	; (1a000358 <ConfigurarInterrupcion+0x48>)
1a000344:	22e0      	movs	r2, #224	; 0xe0
1a000346:	f883 2023 	strb.w	r2, [r3, #35]	; 0x23

   /* Update priority set by SysTick_Config */
   NVIC_SetPriority(SysTick_IRQn, (1<<__NVIC_PRIO_BITS) - 1);

   __asm__ volatile ("cpsie i");
1a00034a:	b662      	cpsie	i
}
1a00034c:	bd08      	pop	{r3, pc}
1a00034e:	bf00      	nop
1a000350:	100000a8 	.word	0x100000a8
1a000354:	10624dd3 	.word	0x10624dd3
1a000358:	e000ed00 	.word	0xe000ed00

1a00035c <ConfigurarPuertosLaboratorio>:
 * @note	Do not use for clock pins (SFSCLK0 .. SFSCLK4). Use
 * Chip_SCU_ClockPinMux() function for SFSCLKx clock pins.
 */
STATIC INLINE void Chip_SCU_PinMuxSet(uint8_t port, uint8_t pin, uint16_t modefunc)
{
	LPC_SCU->SFSP[port][pin] = modefunc;
1a00035c:	4a1c      	ldr	r2, [pc, #112]	; (1a0003d0 <ConfigurarPuertosLaboratorio+0x74>)
1a00035e:	23d4      	movs	r3, #212	; 0xd4
1a000360:	f8c2 3100 	str.w	r3, [r2, #256]	; 0x100
1a000364:	f8c2 3104 	str.w	r3, [r2, #260]	; 0x104
1a000368:	f8c2 3108 	str.w	r3, [r2, #264]	; 0x108
 * @note	Any bit set as a '0' will not have it's state changed. This only
 * applies to ports configured as an output.
 */
STATIC INLINE void Chip_GPIO_ClearValue(LPC_GPIO_T *pGPIO, uint8_t portNum, uint32_t bitValue)
{
	pGPIO->CLR[portNum] = bitValue;
1a00036c:	4b19      	ldr	r3, [pc, #100]	; (1a0003d4 <ConfigurarPuertosLaboratorio+0x78>)
1a00036e:	2107      	movs	r1, #7
1a000370:	f8c3 1294 	str.w	r1, [r3, #660]	; 0x294
		pGPIO->DIR[portNum] |= bitValue;
1a000374:	6959      	ldr	r1, [r3, #20]
1a000376:	f041 0107 	orr.w	r1, r1, #7
1a00037a:	6159      	str	r1, [r3, #20]
1a00037c:	21d0      	movs	r1, #208	; 0xd0
1a00037e:	f8c2 1128 	str.w	r1, [r2, #296]	; 0x128
1a000382:	f8c2 112c 	str.w	r1, [r2, #300]	; 0x12c
1a000386:	f8c2 1130 	str.w	r1, [r2, #304]	; 0x130
	pGPIO->CLR[portNum] = bitValue;
1a00038a:	f44f 4180 	mov.w	r1, #16384	; 0x4000
1a00038e:	f8c3 1280 	str.w	r1, [r3, #640]	; 0x280
1a000392:	f44f 51c0 	mov.w	r1, #6144	; 0x1800
1a000396:	f8c3 1284 	str.w	r1, [r3, #644]	; 0x284
		pGPIO->DIR[portNum] |= bitValue;
1a00039a:	6819      	ldr	r1, [r3, #0]
1a00039c:	f441 4180 	orr.w	r1, r1, #16384	; 0x4000
1a0003a0:	6019      	str	r1, [r3, #0]
1a0003a2:	6859      	ldr	r1, [r3, #4]
1a0003a4:	f441 51c0 	orr.w	r1, r1, #6144	; 0x1800
1a0003a8:	6059      	str	r1, [r3, #4]
1a0003aa:	2140      	movs	r1, #64	; 0x40
1a0003ac:	f8c2 1080 	str.w	r1, [r2, #128]	; 0x80
1a0003b0:	f8c2 1084 	str.w	r1, [r2, #132]	; 0x84
1a0003b4:	f8c2 1088 	str.w	r1, [r2, #136]	; 0x88
1a0003b8:	f8c2 1098 	str.w	r1, [r2, #152]	; 0x98
		pGPIO->DIR[portNum] &= ~bitValue;
1a0003bc:	681a      	ldr	r2, [r3, #0]
1a0003be:	f422 7244 	bic.w	r2, r2, #784	; 0x310
1a0003c2:	601a      	str	r2, [r3, #0]
1a0003c4:	685a      	ldr	r2, [r3, #4]
1a0003c6:	f422 7200 	bic.w	r2, r2, #512	; 0x200
1a0003ca:	605a      	str	r2, [r3, #4]
   Chip_SCU_PinMux(1, 1, SCU_MODE_ENT, SCU_MODE_FUNC0);
   Chip_SCU_PinMux(1, 2, SCU_MODE_ENT, SCU_MODE_FUNC0);
   Chip_SCU_PinMux(1, 6, SCU_MODE_ENT, SCU_MODE_FUNC0);
   Chip_GPIO_SetDir(LPC_GPIO_PORT, 0, (1 << 4) | (1 << 8) | (1 << 9), false);
   Chip_GPIO_SetDir(LPC_GPIO_PORT, 1, (1 << 9), false);
}
1a0003cc:	4770      	bx	lr
1a0003ce:	bf00      	nop
1a0003d0:	40086000 	.word	0x40086000
1a0003d4:	400f6000 	.word	0x400f6000

1a0003d8 <SysTick_Handler>:
void handleData(uint8_t data, int8_t *contador);

void sendByte(LPC_USART_T *pUART, int8_t info);

void SysTick_Handler(void)
{
1a0003d8:	b508      	push	{r3, lr}
	static int contador = 0;

	contador++;
1a0003da:	4a13      	ldr	r2, [pc, #76]	; (1a000428 <SysTick_Handler+0x50>)
1a0003dc:	6813      	ldr	r3, [r2, #0]
1a0003de:	3301      	adds	r3, #1
1a0003e0:	6013      	str	r3, [r2, #0]
	if (contador % 500 == 0)
1a0003e2:	4912      	ldr	r1, [pc, #72]	; (1a00042c <SysTick_Handler+0x54>)
1a0003e4:	fb81 2103 	smull	r2, r1, r1, r3
1a0003e8:	17da      	asrs	r2, r3, #31
1a0003ea:	ebc2 1261 	rsb	r2, r2, r1, asr #5
1a0003ee:	f44f 71fa 	mov.w	r1, #500	; 0x1f4
1a0003f2:	fb01 3212 	mls	r2, r1, r2, r3
1a0003f6:	b19a      	cbz	r2, 1a000420 <SysTick_Handler+0x48>
	{
		Led_Toggle(RED_LED);
	}
	if (contador % 1000 == 0)
1a0003f8:	4b0b      	ldr	r3, [pc, #44]	; (1a000428 <SysTick_Handler+0x50>)
1a0003fa:	681a      	ldr	r2, [r3, #0]
1a0003fc:	490b      	ldr	r1, [pc, #44]	; (1a00042c <SysTick_Handler+0x54>)
1a0003fe:	fb81 3102 	smull	r3, r1, r1, r2
1a000402:	17d3      	asrs	r3, r2, #31
1a000404:	ebc3 13a1 	rsb	r3, r3, r1, asr #6
1a000408:	f44f 717a 	mov.w	r1, #1000	; 0x3e8
1a00040c:	fb01 2313 	mls	r3, r1, r3, r2
1a000410:	b92b      	cbnz	r3, 1a00041e <SysTick_Handler+0x46>
	{
		contador = 0;
1a000412:	4b05      	ldr	r3, [pc, #20]	; (1a000428 <SysTick_Handler+0x50>)
1a000414:	2200      	movs	r2, #0
1a000416:	601a      	str	r2, [r3, #0]
		actualizar = 1;
1a000418:	4b05      	ldr	r3, [pc, #20]	; (1a000430 <SysTick_Handler+0x58>)
1a00041a:	2201      	movs	r2, #1
1a00041c:	701a      	strb	r2, [r3, #0]
	}
}
1a00041e:	bd08      	pop	{r3, pc}
		Led_Toggle(RED_LED);
1a000420:	2003      	movs	r0, #3
1a000422:	f000 f9d5 	bl	1a0007d0 <Led_Toggle>
1a000426:	e7e7      	b.n	1a0003f8 <SysTick_Handler+0x20>
1a000428:	100000a0 	.word	0x100000a0
1a00042c:	10624dd3 	.word	0x10624dd3
1a000430:	1000009c 	.word	0x1000009c

1a000434 <ConfigurarUART>:

void ConfigurarUART(LPC_USART_T *pUART)
{
1a000434:	b510      	push	{r4, lr}
1a000436:	4604      	mov	r4, r0
	Chip_UART_Init(pUART);
1a000438:	f000 ffee 	bl	1a001418 <Chip_UART_Init>

	//Habilito la escritura del registro DLM y DLL
	//Utilizo una mascara para escribir en el bit 7
	pUART->LCR |= UART_LCR_DLAB_EN;
1a00043c:	68e3      	ldr	r3, [r4, #12]
1a00043e:	f043 0380 	orr.w	r3, r3, #128	; 0x80
1a000442:	60e3      	str	r3, [r4, #12]

	//El Para obtener 9600bps uso el valor 1328 = 0x530
	//Configuro DLM y DLL
	pUART->DLM = 0x05;
1a000444:	2305      	movs	r3, #5
1a000446:	6063      	str	r3, [r4, #4]
	pUART->DLL = 0x30;
1a000448:	2330      	movs	r3, #48	; 0x30
1a00044a:	6023      	str	r3, [r4, #0]

	//Borro todos los valores a configurar en bits 7 al 0
	pUART->LCR &= 0xFFFFFF00;
1a00044c:	68e3      	ldr	r3, [r4, #12]
1a00044e:	f023 03ff 	bic.w	r3, r3, #255	; 0xff
1a000452:	60e3      	str	r3, [r4, #12]

	//Configuro los valores
	pUART->LCR |= 
1a000454:	68e3      	ldr	r3, [r4, #12]
1a000456:	f043 031b 	orr.w	r3, r3, #27
1a00045a:	60e3      	str	r3, [r4, #12]
		UART_LCR_PARITY_EN	//habilito paridad
		| UART_LCR_PARITY_EVEN	//paridad par
		| UART_LCR_WLEN8		//8 bits de palabra
		| UART_LCR_SBS_1BIT;	//1 bit de stop

	pUART->TER2 = UART_TER2_TXEN;
1a00045c:	2301      	movs	r3, #1
1a00045e:	65e3      	str	r3, [r4, #92]	; 0x5c

}
1a000460:	bd10      	pop	{r4, pc}

1a000462 <UARTDisponible>:

uint8_t UARTDisponible(LPC_USART_T *pUART)
{
	//Reviso que el THRE este vacio y listo para enviar.
	return pUART->LSR & UART_LSR_THRE;
1a000462:	6940      	ldr	r0, [r0, #20]
}
1a000464:	f000 0020 	and.w	r0, r0, #32
1a000468:	4770      	bx	lr

1a00046a <UARTLeerByte>:
 * @param error Puntero donde guardamos el error
 * @return codigo
 **/
uint8_t UARTLeerByte(LPC_USART_T *pUART, uint8_t *data, uint8_t *error)
{
	uint8_t status = pUART->LSR;
1a00046a:	6943      	ldr	r3, [r0, #20]
1a00046c:	fa5f fc83 	uxtb.w	ip, r3

	//Primero verifico si existe algun error
	if( status & UART_LSR_RXFE)
1a000470:	f013 0f80 	tst.w	r3, #128	; 0x80
1a000474:	d104      	bne.n	1a000480 <UARTLeerByte+0x16>

		//Devuelvo 2 indicando que hay error.
		return 2;
	}

	if(status & UART_LSR_RDR)
1a000476:	f013 0f01 	tst.w	r3, #1
1a00047a:	d107      	bne.n	1a00048c <UARTLeerByte+0x22>
		//Devuelvo 1 indicando que hay datos
		return 1;
	}

	//Devuelvo 0 indicando nulo
	return 0;
1a00047c:	2000      	movs	r0, #0
}
1a00047e:	4770      	bx	lr
		*error = status & (
1a000480:	f00c 0c1e 	and.w	ip, ip, #30
1a000484:	f882 c000 	strb.w	ip, [r2]
		return 2;
1a000488:	2002      	movs	r0, #2
1a00048a:	4770      	bx	lr
		*data = pUART->RBR;
1a00048c:	6803      	ldr	r3, [r0, #0]
1a00048e:	700b      	strb	r3, [r1, #0]
		return 1;
1a000490:	2001      	movs	r0, #1
1a000492:	4770      	bx	lr

1a000494 <translateError>:
 * @return uint8_t
 **/
const char* translateError(uint8_t error)
{
	//Si es error de overrun
	if (error & UART_LSR_OE)
1a000494:	f010 0f02 	tst.w	r0, #2
1a000498:	d10a      	bne.n	1a0004b0 <translateError+0x1c>
	{
		return OVERRUN;
	}

	//Si es error de paridad
	if (error & UART_LSR_PE)
1a00049a:	f010 0f04 	tst.w	r0, #4
1a00049e:	d109      	bne.n	1a0004b4 <translateError+0x20>
	{
		return PARITY;
	}

	//Si es error de framing
	if (error & UART_LSR_FE)
1a0004a0:	f010 0f08 	tst.w	r0, #8
1a0004a4:	d108      	bne.n	1a0004b8 <translateError+0x24>
	{
		return FRAMING;
	}

	//Si es error de breack
	if (error & UART_LSR_BI)
1a0004a6:	f010 0f10 	tst.w	r0, #16
1a0004aa:	d107      	bne.n	1a0004bc <translateError+0x28>
	{
		return BREAK;
	}

	return UNKNOWN;
1a0004ac:	4804      	ldr	r0, [pc, #16]	; (1a0004c0 <translateError+0x2c>)
1a0004ae:	4770      	bx	lr
		return OVERRUN;
1a0004b0:	4804      	ldr	r0, [pc, #16]	; (1a0004c4 <translateError+0x30>)
1a0004b2:	4770      	bx	lr
		return PARITY;
1a0004b4:	4804      	ldr	r0, [pc, #16]	; (1a0004c8 <translateError+0x34>)
1a0004b6:	4770      	bx	lr
		return FRAMING;
1a0004b8:	4804      	ldr	r0, [pc, #16]	; (1a0004cc <translateError+0x38>)
1a0004ba:	4770      	bx	lr
		return BREAK;
1a0004bc:	4804      	ldr	r0, [pc, #16]	; (1a0004d0 <translateError+0x3c>)
}
1a0004be:	4770      	bx	lr
1a0004c0:	1a002728 	.word	0x1a002728
1a0004c4:	1a0026e8 	.word	0x1a0026e8
1a0004c8:	1a0026f8 	.word	0x1a0026f8
1a0004cc:	1a002708 	.word	0x1a002708
1a0004d0:	1a002718 	.word	0x1a002718

1a0004d4 <handleError>:
/**
 * Manejo de error
 * @param error - El codigo de error segun translateError
 **/
void handleError(uint8_t error)
{
1a0004d4:	b508      	push	{r3, lr}
	//Printeo el error ya que no se definio ninguna conducta.
	printf("%s", translateError(error));
1a0004d6:	f7ff ffdd 	bl	1a000494 <translateError>
1a0004da:	4601      	mov	r1, r0
1a0004dc:	4801      	ldr	r0, [pc, #4]	; (1a0004e4 <handleError+0x10>)
1a0004de:	f001 f9d3 	bl	1a001888 <iprintf>
}
1a0004e2:	bd08      	pop	{r3, pc}
1a0004e4:	1a002738 	.word	0x1a002738

1a0004e8 <handleData>:
 * @param data - El dato a ser procesado.
 **/
void handleData(uint8_t data, int8_t *contador)
{

	switch (data)
1a0004e8:	2871      	cmp	r0, #113	; 0x71
1a0004ea:	d00a      	beq.n	1a000502 <handleData+0x1a>
1a0004ec:	2877      	cmp	r0, #119	; 0x77
1a0004ee:	d00a      	beq.n	1a000506 <handleData+0x1e>
1a0004f0:	2865      	cmp	r0, #101	; 0x65
1a0004f2:	d00a      	beq.n	1a00050a <handleData+0x22>
			*contador = 0;
			break;
	}

	//Verifico que el contador no se pase de 100 o 0.
	if( *contador > 99 )
1a0004f4:	f991 3000 	ldrsb.w	r3, [r1]
1a0004f8:	2b63      	cmp	r3, #99	; 0x63
1a0004fa:	dd09      	ble.n	1a000510 <handleData+0x28>
	{
		*contador = 0;
1a0004fc:	2300      	movs	r3, #0
1a0004fe:	700b      	strb	r3, [r1, #0]
1a000500:	4770      	bx	lr
			*contador++;
1a000502:	3101      	adds	r1, #1
			break;
1a000504:	e7f6      	b.n	1a0004f4 <handleData+0xc>
			*contador--;
1a000506:	3901      	subs	r1, #1
			break;
1a000508:	e7f4      	b.n	1a0004f4 <handleData+0xc>
			*contador = 0;
1a00050a:	2300      	movs	r3, #0
1a00050c:	700b      	strb	r3, [r1, #0]
			break;
1a00050e:	e7f1      	b.n	1a0004f4 <handleData+0xc>
	}
	else if( *contador < 0 )
1a000510:	2b00      	cmp	r3, #0
1a000512:	db00      	blt.n	1a000516 <handleData+0x2e>
	{
		*contador = 99;
	}
}
1a000514:	4770      	bx	lr
		*contador = 99;
1a000516:	2363      	movs	r3, #99	; 0x63
1a000518:	700b      	strb	r3, [r1, #0]
}
1a00051a:	e7fb      	b.n	1a000514 <handleData+0x2c>

1a00051c <sendByte>:

void sendByte(LPC_USART_T *pUART, int8_t info)
{
	//hago un cast al byte para que se envie sin signo.
	pUART->THR = (uint32_t) info;
1a00051c:	6001      	str	r1, [r0, #0]
1a00051e:	4770      	bx	lr

1a000520 <main>:
{
1a000520:	b500      	push	{lr}
1a000522:	b083      	sub	sp, #12
	int8_t contador_display = 0;
1a000524:	2300      	movs	r3, #0
1a000526:	f88d 3005 	strb.w	r3, [sp, #5]
	ConfigurarPuertosLaboratorio();
1a00052a:	f7ff ff17 	bl	1a00035c <ConfigurarPuertosLaboratorio>
	ConfigurarInterrupcion();
1a00052e:	f7ff feef 	bl	1a000310 <ConfigurarInterrupcion>
	ConfigurarUART(USB_UART);
1a000532:	4819      	ldr	r0, [pc, #100]	; (1a000598 <main+0x78>)
1a000534:	f7ff ff7e 	bl	1a000434 <ConfigurarUART>
1a000538:	e019      	b.n	1a00056e <main+0x4e>
			actualizar = 0;
1a00053a:	4b18      	ldr	r3, [pc, #96]	; (1a00059c <main+0x7c>)
1a00053c:	2200      	movs	r2, #0
1a00053e:	701a      	strb	r2, [r3, #0]
			Led_On(GREEN_LED);
1a000540:	2005      	movs	r0, #5
1a000542:	f000 f8d9 	bl	1a0006f8 <Led_On>
			if(UARTDisponible(USB_UART))
1a000546:	4814      	ldr	r0, [pc, #80]	; (1a000598 <main+0x78>)
1a000548:	f7ff ff8b 	bl	1a000462 <UARTDisponible>
1a00054c:	b918      	cbnz	r0, 1a000556 <main+0x36>
			Led_Off(GREEN_LED);
1a00054e:	2005      	movs	r0, #5
1a000550:	f000 f908 	bl	1a000764 <Led_Off>
1a000554:	e00f      	b.n	1a000576 <main+0x56>
				sendByte(USB_UART,contador_display);
1a000556:	f99d 1005 	ldrsb.w	r1, [sp, #5]
1a00055a:	480f      	ldr	r0, [pc, #60]	; (1a000598 <main+0x78>)
1a00055c:	f7ff ffde 	bl	1a00051c <sendByte>
1a000560:	e7f5      	b.n	1a00054e <main+0x2e>
				handleData(data, &contador_display);
1a000562:	f10d 0105 	add.w	r1, sp, #5
1a000566:	f89d 0007 	ldrb.w	r0, [sp, #7]
1a00056a:	f7ff ffbd 	bl	1a0004e8 <handleData>
		if (actualizar)
1a00056e:	4b0b      	ldr	r3, [pc, #44]	; (1a00059c <main+0x7c>)
1a000570:	781b      	ldrb	r3, [r3, #0]
1a000572:	2b00      	cmp	r3, #0
1a000574:	d1e1      	bne.n	1a00053a <main+0x1a>
		switch (UARTLeerByte(USB_UART, &data, &error))
1a000576:	f10d 0206 	add.w	r2, sp, #6
1a00057a:	f10d 0107 	add.w	r1, sp, #7
1a00057e:	4806      	ldr	r0, [pc, #24]	; (1a000598 <main+0x78>)
1a000580:	f7ff ff73 	bl	1a00046a <UARTLeerByte>
1a000584:	2801      	cmp	r0, #1
1a000586:	d0ec      	beq.n	1a000562 <main+0x42>
1a000588:	2802      	cmp	r0, #2
1a00058a:	d1f0      	bne.n	1a00056e <main+0x4e>
				handleError(error);
1a00058c:	f89d 0006 	ldrb.w	r0, [sp, #6]
1a000590:	f7ff ffa0 	bl	1a0004d4 <handleError>
				break;
1a000594:	e7eb      	b.n	1a00056e <main+0x4e>
1a000596:	bf00      	nop
1a000598:	400c1000 	.word	0x400c1000
1a00059c:	1000009c 	.word	0x1000009c

1a0005a0 <initialise_monitor_handles>:
}
1a0005a0:	4770      	bx	lr
	...

1a0005a4 <Reset_Handler>:
void Reset_Handler(void) {
1a0005a4:	b510      	push	{r4, lr}
    __asm__ volatile("cpsid i");
1a0005a6:	b672      	cpsid	i
    *(RESET_CONTROL + 0) = 0x10DF1000;
1a0005a8:	4b19      	ldr	r3, [pc, #100]	; (1a000610 <Reset_Handler+0x6c>)
1a0005aa:	4a1a      	ldr	r2, [pc, #104]	; (1a000614 <Reset_Handler+0x70>)
1a0005ac:	f8c3 2100 	str.w	r2, [r3, #256]	; 0x100
    *(RESET_CONTROL + 1) = 0x01DFF7FF;
1a0005b0:	4a19      	ldr	r2, [pc, #100]	; (1a000618 <Reset_Handler+0x74>)
1a0005b2:	f8c3 2104 	str.w	r2, [r3, #260]	; 0x104
    for (irqpendloop = 0; irqpendloop < 8; irqpendloop++) {
1a0005b6:	2300      	movs	r3, #0
1a0005b8:	e005      	b.n	1a0005c6 <Reset_Handler+0x22>
        *(NVIC_ICPR + irqpendloop) = 0xFFFFFFFF;
1a0005ba:	4a18      	ldr	r2, [pc, #96]	; (1a00061c <Reset_Handler+0x78>)
1a0005bc:	f04f 31ff 	mov.w	r1, #4294967295	; 0xffffffff
1a0005c0:	f842 1023 	str.w	r1, [r2, r3, lsl #2]
    for (irqpendloop = 0; irqpendloop < 8; irqpendloop++) {
1a0005c4:	3301      	adds	r3, #1
1a0005c6:	2b07      	cmp	r3, #7
1a0005c8:	d9f7      	bls.n	1a0005ba <Reset_Handler+0x16>
    __asm__ volatile("cpsie i");
1a0005ca:	b662      	cpsie	i
    SectionTableAddr = &__data_section_table;
1a0005cc:	4b14      	ldr	r3, [pc, #80]	; (1a000620 <Reset_Handler+0x7c>)
    while (SectionTableAddr < &__data_section_table_end) {
1a0005ce:	e007      	b.n	1a0005e0 <Reset_Handler+0x3c>
        SectionLen = *SectionTableAddr++;
1a0005d0:	f103 040c 	add.w	r4, r3, #12
        data_init(LoadAddr, ExeAddr, SectionLen);
1a0005d4:	689a      	ldr	r2, [r3, #8]
1a0005d6:	6859      	ldr	r1, [r3, #4]
1a0005d8:	6818      	ldr	r0, [r3, #0]
1a0005da:	f7ff fdd6 	bl	1a00018a <data_init>
        SectionLen = *SectionTableAddr++;
1a0005de:	4623      	mov	r3, r4
    while (SectionTableAddr < &__data_section_table_end) {
1a0005e0:	4a10      	ldr	r2, [pc, #64]	; (1a000624 <Reset_Handler+0x80>)
1a0005e2:	4293      	cmp	r3, r2
1a0005e4:	d3f4      	bcc.n	1a0005d0 <Reset_Handler+0x2c>
1a0005e6:	e006      	b.n	1a0005f6 <Reset_Handler+0x52>
        ExeAddr = *SectionTableAddr++;
1a0005e8:	461c      	mov	r4, r3
        bss_init(ExeAddr, SectionLen);
1a0005ea:	6859      	ldr	r1, [r3, #4]
1a0005ec:	f854 0b08 	ldr.w	r0, [r4], #8
1a0005f0:	f7ff fdda 	bl	1a0001a8 <bss_init>
        SectionLen = *SectionTableAddr++;
1a0005f4:	4623      	mov	r3, r4
    while (SectionTableAddr < &__bss_section_table_end) {
1a0005f6:	4a0c      	ldr	r2, [pc, #48]	; (1a000628 <Reset_Handler+0x84>)
1a0005f8:	4293      	cmp	r3, r2
1a0005fa:	d3f5      	bcc.n	1a0005e8 <Reset_Handler+0x44>
    SystemInit();
1a0005fc:	f000 ffa4 	bl	1a001548 <SystemInit>
    __libc_init_array();
1a000600:	f001 f916 	bl	1a001830 <__libc_init_array>
    initialise_monitor_handles();
1a000604:	f7ff ffcc 	bl	1a0005a0 <initialise_monitor_handles>
    main();
1a000608:	f7ff ff8a 	bl	1a000520 <main>
        __asm__ volatile("wfi");
1a00060c:	bf30      	wfi
    while (1) {
1a00060e:	e7fd      	b.n	1a00060c <Reset_Handler+0x68>
1a000610:	40053000 	.word	0x40053000
1a000614:	10df1000 	.word	0x10df1000
1a000618:	01dff7ff 	.word	0x01dff7ff
1a00061c:	e000e280 	.word	0xe000e280
1a000620:	1a000114 	.word	0x1a000114
1a000624:	1a000150 	.word	0x1a000150
1a000628:	1a000178 	.word	0x1a000178

1a00062c <_fini>:
void _fini(void) {}
1a00062c:	4770      	bx	lr

1a00062e <_init>:
void _init(void) {}
1a00062e:	4770      	bx	lr

1a000630 <_close_r>:
   (void) __params__;
}

int _close_r(struct _reent *r, int fd) {
   UNUSED(fd);
   SET_ERR(EBADF);
1a000630:	2309      	movs	r3, #9
1a000632:	6003      	str	r3, [r0, #0]
   return -1;
}
1a000634:	f04f 30ff 	mov.w	r0, #4294967295	; 0xffffffff
1a000638:	4770      	bx	lr

1a00063a <_fstat_r>:
}

int _fstat_r(struct _reent *r, int fd, struct stat *st) {
   UNUSED(fd);
   UNUSED(st);
   SET_ERR(ENOSYS);
1a00063a:	2358      	movs	r3, #88	; 0x58
1a00063c:	6003      	str	r3, [r0, #0]
   return -1;
}
1a00063e:	f04f 30ff 	mov.w	r0, #4294967295	; 0xffffffff
1a000642:	4770      	bx	lr

1a000644 <_isatty_r>:
   UNUSED(r);
   return 1;
}

int _isatty_r(struct _reent *r, int fd) {
   switch (fd) {
1a000644:	2902      	cmp	r1, #2
1a000646:	d904      	bls.n	1a000652 <_isatty_r+0xe>
   case 0:
   case 1:
   case 2:
       return 1;
   default:
       SET_ERR(EBADF);
1a000648:	2309      	movs	r3, #9
1a00064a:	6003      	str	r3, [r0, #0]
       return -1;
1a00064c:	f04f 30ff 	mov.w	r0, #4294967295	; 0xffffffff
1a000650:	4770      	bx	lr
       return 1;
1a000652:	2001      	movs	r0, #1
   }
}
1a000654:	4770      	bx	lr

1a000656 <_lseek_r>:

_off_t _lseek_r(struct _reent *r, int fd, _off_t off, int w) {
   UNUSED(fd);
   UNUSED(off);
   UNUSED(w);
   SET_ERR(ENOSYS);
1a000656:	2358      	movs	r3, #88	; 0x58
1a000658:	6003      	str	r3, [r0, #0]
   return -1;
}
1a00065a:	f04f 30ff 	mov.w	r0, #4294967295	; 0xffffffff
1a00065e:	4770      	bx	lr

1a000660 <_read_r>:
       SET_ERR(ENODEV);
       return -1;
   }
}
*/
_ssize_t _read_r(struct _reent *r, int fd, void *b, size_t n) {
1a000660:	e92d 41f0 	stmdb	sp!, {r4, r5, r6, r7, r8, lr}
1a000664:	4606      	mov	r6, r0
  size_t i = 0;
  switch (fd) {
1a000666:	2902      	cmp	r1, #2
1a000668:	d81c      	bhi.n	1a0006a4 <_read_r+0x44>
1a00066a:	4617      	mov	r7, r2
1a00066c:	461d      	mov	r5, r3
  size_t i = 0;
1a00066e:	2400      	movs	r4, #0
  case 0:
  case 1:
  case 2:
      while( i < n ){
1a000670:	42ac      	cmp	r4, r5
1a000672:	d211      	bcs.n	1a000698 <_read_r+0x38>
         int c = __stdio_getchar();
1a000674:	f000 f9d5 	bl	1a000a22 <__stdio_getchar>
         if( c != -1 ){
1a000678:	f1b0 3fff 	cmp.w	r0, #4294967295	; 0xffffffff
1a00067c:	d0f8      	beq.n	1a000670 <_read_r+0x10>
            ((char*) b)[i++] = (char) c;
1a00067e:	f104 0801 	add.w	r8, r4, #1
1a000682:	5538      	strb	r0, [r7, r4]
            if( c == '\r' || c == '\n' ){
1a000684:	280d      	cmp	r0, #13
1a000686:	d003      	beq.n	1a000690 <_read_r+0x30>
1a000688:	280a      	cmp	r0, #10
1a00068a:	d001      	beq.n	1a000690 <_read_r+0x30>
            ((char*) b)[i++] = (char) c;
1a00068c:	4644      	mov	r4, r8
1a00068e:	e7ef      	b.n	1a000670 <_read_r+0x10>
               // read anotherone to prevent \r\n
               (void) __stdio_getchar();
1a000690:	f000 f9c7 	bl	1a000a22 <__stdio_getchar>
               return i;
1a000694:	4640      	mov	r0, r8
1a000696:	e003      	b.n	1a0006a0 <_read_r+0x40>
            }
         }
      }
      SET_ERR(ENODEV);
1a000698:	2313      	movs	r3, #19
1a00069a:	6033      	str	r3, [r6, #0]
      return -1;
1a00069c:	f04f 30ff 	mov.w	r0, #4294967295	; 0xffffffff
  default:
      SET_ERR(ENODEV);
      return -1;
  }
}
1a0006a0:	e8bd 81f0 	ldmia.w	sp!, {r4, r5, r6, r7, r8, pc}
      SET_ERR(ENODEV);
1a0006a4:	2313      	movs	r3, #19
1a0006a6:	6003      	str	r3, [r0, #0]
      return -1;
1a0006a8:	f04f 30ff 	mov.w	r0, #4294967295	; 0xffffffff
1a0006ac:	e7f8      	b.n	1a0006a0 <_read_r+0x40>

1a0006ae <_write_r>:
   return -1;
}

_ssize_t _write_r(struct _reent *r, int fd, const void *b, size_t n) {
   size_t i;
   switch (fd) {
1a0006ae:	2902      	cmp	r1, #2
1a0006b0:	d80c      	bhi.n	1a0006cc <_write_r+0x1e>
_ssize_t _write_r(struct _reent *r, int fd, const void *b, size_t n) {
1a0006b2:	b570      	push	{r4, r5, r6, lr}
1a0006b4:	4616      	mov	r6, r2
1a0006b6:	461d      	mov	r5, r3
   case 0:
   case 1:
   case 2:
       for (i = 0; i < n; i++)
1a0006b8:	2400      	movs	r4, #0
1a0006ba:	e003      	b.n	1a0006c4 <_write_r+0x16>
           __stdio_putchar(((char*) b)[i]);
1a0006bc:	5d30      	ldrb	r0, [r6, r4]
1a0006be:	f000 f9ab 	bl	1a000a18 <__stdio_putchar>
       for (i = 0; i < n; i++)
1a0006c2:	3401      	adds	r4, #1
1a0006c4:	42ac      	cmp	r4, r5
1a0006c6:	d3f9      	bcc.n	1a0006bc <_write_r+0xe>
       return n;
1a0006c8:	4628      	mov	r0, r5
   default:
       SET_ERR(ENODEV);
       return -1;
   }
}
1a0006ca:	bd70      	pop	{r4, r5, r6, pc}
       SET_ERR(ENODEV);
1a0006cc:	2313      	movs	r3, #19
1a0006ce:	6003      	str	r3, [r0, #0]
       return -1;
1a0006d0:	f04f 30ff 	mov.w	r0, #4294967295	; 0xffffffff
}
1a0006d4:	4770      	bx	lr
	...

1a0006d8 <_sbrk_r>:

void *_sbrk_r(struct _reent *r, ptrdiff_t incr) {
   extern int _pvHeapStart;
   static void *heap_end;
   void *prev_heap_end;
   if (heap_end == 0) {
1a0006d8:	4b05      	ldr	r3, [pc, #20]	; (1a0006f0 <_sbrk_r+0x18>)
1a0006da:	681b      	ldr	r3, [r3, #0]
1a0006dc:	b123      	cbz	r3, 1a0006e8 <_sbrk_r+0x10>
       heap_end = &_pvHeapStart;
   }
   prev_heap_end = heap_end;
1a0006de:	4b04      	ldr	r3, [pc, #16]	; (1a0006f0 <_sbrk_r+0x18>)
1a0006e0:	6818      	ldr	r0, [r3, #0]
   heap_end += incr;
1a0006e2:	4401      	add	r1, r0
1a0006e4:	6019      	str	r1, [r3, #0]
   return prev_heap_end;
}
1a0006e6:	4770      	bx	lr
       heap_end = &_pvHeapStart;
1a0006e8:	4b01      	ldr	r3, [pc, #4]	; (1a0006f0 <_sbrk_r+0x18>)
1a0006ea:	4a02      	ldr	r2, [pc, #8]	; (1a0006f4 <_sbrk_r+0x1c>)
1a0006ec:	601a      	str	r2, [r3, #0]
1a0006ee:	e7f6      	b.n	1a0006de <_sbrk_r+0x6>
1a0006f0:	100000a4 	.word	0x100000a4
1a0006f4:	100000c0 	.word	0x100000c0

1a0006f8 <Led_On>:
	return TRUE;
}

/** \brief Function to turn on a specific led */
uint8_t Led_On(uint8_t led)
{
1a0006f8:	4603      	mov	r3, r0
	/** \details Function to turn on a specific led at the EDU-CIAA board.
	 * 	\params uint8_t led: this word represent a specific led based on the LED_COLOR enumeration.
	 * */
	uint8_t result = FALSE;

	if (led == RED_LED)
1a0006fa:	2803      	cmp	r0, #3
1a0006fc:	d00e      	beq.n	1a00071c <Led_On+0x24>
	uint8_t result = FALSE;
1a0006fe:	2000      	movs	r0, #0
	{
		Chip_GPIO_SetPinOutHigh(LPC_GPIO_PORT,LED1_GPIO_PORT,LED1_GPIO_PIN);
		result = TRUE;
	}
	if (led == YELLOW_LED)
1a000700:	2b04      	cmp	r3, #4
1a000702:	d012      	beq.n	1a00072a <Led_On+0x32>
	{
		Chip_GPIO_SetPinOutHigh(LPC_GPIO_PORT,LED2_GPIO_PORT,LED2_GPIO_PIN);
		result = TRUE;
	}
	if (led == GREEN_LED)
1a000704:	2b05      	cmp	r3, #5
1a000706:	d017      	beq.n	1a000738 <Led_On+0x40>
	{
		Chip_GPIO_SetPinOutHigh(LPC_GPIO_PORT,LED3_GPIO_PORT,LED3_GPIO_PIN);
		result = TRUE;
	}
    if (led == RGB_R_LED)
1a000708:	b91b      	cbnz	r3, 1a000712 <Led_On+0x1a>
	pGPIO->SET[port] = (1 << pin);
1a00070a:	2001      	movs	r0, #1
1a00070c:	4a14      	ldr	r2, [pc, #80]	; (1a000760 <Led_On+0x68>)
1a00070e:	f8c2 0214 	str.w	r0, [r2, #532]	; 0x214
	{
		Chip_GPIO_SetPinOutHigh(LPC_GPIO_PORT,LED_RGB_R_GPIO_PORT,LED_RGB_R_GPIO_PIN);
		result = TRUE;
	}
	if (led == RGB_G_LED)
1a000712:	2b01      	cmp	r3, #1
1a000714:	d017      	beq.n	1a000746 <Led_On+0x4e>
	{
		Chip_GPIO_SetPinOutHigh(LPC_GPIO_PORT,LED_RGB_G_GPIO_PORT,LED_RGB_G_GPIO_PIN);
		result = TRUE;
	}
	if (led == RGB_B_LED)
1a000716:	2b02      	cmp	r3, #2
1a000718:	d01b      	beq.n	1a000752 <Led_On+0x5a>
	{
		Chip_GPIO_SetPinOutHigh(LPC_GPIO_PORT,LED_RGB_B_GPIO_PORT,LED_RGB_B_GPIO_PIN);
		result = TRUE;
	}
	return result;
}
1a00071a:	4770      	bx	lr
1a00071c:	4a10      	ldr	r2, [pc, #64]	; (1a000760 <Led_On+0x68>)
1a00071e:	f44f 4180 	mov.w	r1, #16384	; 0x4000
1a000722:	f8c2 1200 	str.w	r1, [r2, #512]	; 0x200
		result = TRUE;
1a000726:	2001      	movs	r0, #1
1a000728:	e7ea      	b.n	1a000700 <Led_On+0x8>
1a00072a:	4a0d      	ldr	r2, [pc, #52]	; (1a000760 <Led_On+0x68>)
1a00072c:	f44f 6100 	mov.w	r1, #2048	; 0x800
1a000730:	f8c2 1204 	str.w	r1, [r2, #516]	; 0x204
		result = TRUE;
1a000734:	2001      	movs	r0, #1
1a000736:	e7e5      	b.n	1a000704 <Led_On+0xc>
1a000738:	4a09      	ldr	r2, [pc, #36]	; (1a000760 <Led_On+0x68>)
1a00073a:	f44f 5180 	mov.w	r1, #4096	; 0x1000
1a00073e:	f8c2 1204 	str.w	r1, [r2, #516]	; 0x204
		result = TRUE;
1a000742:	2001      	movs	r0, #1
1a000744:	e7e0      	b.n	1a000708 <Led_On+0x10>
1a000746:	4a06      	ldr	r2, [pc, #24]	; (1a000760 <Led_On+0x68>)
1a000748:	2102      	movs	r1, #2
1a00074a:	f8c2 1214 	str.w	r1, [r2, #532]	; 0x214
		result = TRUE;
1a00074e:	4618      	mov	r0, r3
1a000750:	e7e1      	b.n	1a000716 <Led_On+0x1e>
1a000752:	4b03      	ldr	r3, [pc, #12]	; (1a000760 <Led_On+0x68>)
1a000754:	2204      	movs	r2, #4
1a000756:	f8c3 2214 	str.w	r2, [r3, #532]	; 0x214
		result = TRUE;
1a00075a:	2001      	movs	r0, #1
1a00075c:	e7dd      	b.n	1a00071a <Led_On+0x22>
1a00075e:	bf00      	nop
1a000760:	400f6000 	.word	0x400f6000

1a000764 <Led_Off>:

/** \brief Function to turn off a specific led */
uint8_t Led_Off(uint8_t led)
{
1a000764:	4603      	mov	r3, r0
	/** \details Function to turn off a specific led at the EDU-CIAA board.
		 * 	\params uint8_t led: this word represent a specific led based on the LED_COLOR enumeration.
		 * */
	uint8_t result = FALSE;

	if (led == RED_LED)
1a000766:	2803      	cmp	r0, #3
1a000768:	d00e      	beq.n	1a000788 <Led_Off+0x24>
	uint8_t result = FALSE;
1a00076a:	2000      	movs	r0, #0
	{
		Chip_GPIO_SetPinOutLow(LPC_GPIO_PORT,LED1_GPIO_PORT,LED1_GPIO_PIN);
		result = TRUE;
	}
	if (led == YELLOW_LED)
1a00076c:	2b04      	cmp	r3, #4
1a00076e:	d012      	beq.n	1a000796 <Led_Off+0x32>
	{
		Chip_GPIO_SetPinOutLow(LPC_GPIO_PORT,LED2_GPIO_PORT,LED2_GPIO_PIN);
		result = TRUE;
	}
	if (led == GREEN_LED)
1a000770:	2b05      	cmp	r3, #5
1a000772:	d017      	beq.n	1a0007a4 <Led_Off+0x40>
	{
		Chip_GPIO_SetPinOutLow(LPC_GPIO_PORT,LED3_GPIO_PORT,LED3_GPIO_PIN);
		result = TRUE;
	}
	if (led == RGB_R_LED)
1a000774:	b91b      	cbnz	r3, 1a00077e <Led_Off+0x1a>
 * @note	Any bit set as a '0' will not have it's state changed. This only
 * applies to ports configured as an output.
 */
STATIC INLINE void Chip_GPIO_SetPinOutLow(LPC_GPIO_T *pGPIO, uint8_t port, uint8_t pin)
{
	pGPIO->CLR[port] = (1 << pin);
1a000776:	2001      	movs	r0, #1
1a000778:	4a14      	ldr	r2, [pc, #80]	; (1a0007cc <Led_Off+0x68>)
1a00077a:	f8c2 0294 	str.w	r0, [r2, #660]	; 0x294
	{
		Chip_GPIO_SetPinOutLow(LPC_GPIO_PORT,LED_RGB_R_GPIO_PORT,LED_RGB_R_GPIO_PIN);
		result = TRUE;
	}
	if (led == RGB_G_LED)
1a00077e:	2b01      	cmp	r3, #1
1a000780:	d017      	beq.n	1a0007b2 <Led_Off+0x4e>
	{
		Chip_GPIO_SetPinOutLow(LPC_GPIO_PORT,LED_RGB_G_GPIO_PORT,LED_RGB_G_GPIO_PIN);
		result = TRUE;
	}
	if (led == RGB_B_LED)
1a000782:	2b02      	cmp	r3, #2
1a000784:	d01b      	beq.n	1a0007be <Led_Off+0x5a>
	{
		Chip_GPIO_SetPinOutLow(LPC_GPIO_PORT,LED_RGB_B_GPIO_PORT,LED_RGB_B_GPIO_PIN);
		result = TRUE;
	}
	return result;
}
1a000786:	4770      	bx	lr
1a000788:	4a10      	ldr	r2, [pc, #64]	; (1a0007cc <Led_Off+0x68>)
1a00078a:	f44f 4180 	mov.w	r1, #16384	; 0x4000
1a00078e:	f8c2 1280 	str.w	r1, [r2, #640]	; 0x280
		result = TRUE;
1a000792:	2001      	movs	r0, #1
1a000794:	e7ea      	b.n	1a00076c <Led_Off+0x8>
1a000796:	4a0d      	ldr	r2, [pc, #52]	; (1a0007cc <Led_Off+0x68>)
1a000798:	f44f 6100 	mov.w	r1, #2048	; 0x800
1a00079c:	f8c2 1284 	str.w	r1, [r2, #644]	; 0x284
		result = TRUE;
1a0007a0:	2001      	movs	r0, #1
1a0007a2:	e7e5      	b.n	1a000770 <Led_Off+0xc>
1a0007a4:	4a09      	ldr	r2, [pc, #36]	; (1a0007cc <Led_Off+0x68>)
1a0007a6:	f44f 5180 	mov.w	r1, #4096	; 0x1000
1a0007aa:	f8c2 1284 	str.w	r1, [r2, #644]	; 0x284
		result = TRUE;
1a0007ae:	2001      	movs	r0, #1
1a0007b0:	e7e0      	b.n	1a000774 <Led_Off+0x10>
1a0007b2:	4a06      	ldr	r2, [pc, #24]	; (1a0007cc <Led_Off+0x68>)
1a0007b4:	2102      	movs	r1, #2
1a0007b6:	f8c2 1294 	str.w	r1, [r2, #660]	; 0x294
		result = TRUE;
1a0007ba:	4618      	mov	r0, r3
1a0007bc:	e7e1      	b.n	1a000782 <Led_Off+0x1e>
1a0007be:	4b03      	ldr	r3, [pc, #12]	; (1a0007cc <Led_Off+0x68>)
1a0007c0:	2204      	movs	r2, #4
1a0007c2:	f8c3 2294 	str.w	r2, [r3, #660]	; 0x294
		result = TRUE;
1a0007c6:	2001      	movs	r0, #1
1a0007c8:	e7dd      	b.n	1a000786 <Led_Off+0x22>
1a0007ca:	bf00      	nop
1a0007cc:	400f6000 	.word	0x400f6000

1a0007d0 <Led_Toggle>:

/** \brief Function to turn off a specific led */
uint8_t Led_Toggle(uint8_t led)
{
1a0007d0:	4603      	mov	r3, r0
	/** \details Function to toogle a specific led at the EDU-CIAA board.
	 * 	\params uint8_t led: this word represent a specific led based on the LED_COLOR enumeration.
	 * */
uint8_t result = FALSE;

	if (led == RED_LED)
1a0007d2:	2803      	cmp	r0, #3
1a0007d4:	d00e      	beq.n	1a0007f4 <Led_Toggle+0x24>
uint8_t result = FALSE;
1a0007d6:	2000      	movs	r0, #0
	{
		Chip_GPIO_SetPinToggle(LPC_GPIO_PORT,LED1_GPIO_PORT,LED1_GPIO_PIN);
		result = TRUE;
	}
	if (led == YELLOW_LED)
1a0007d8:	2b04      	cmp	r3, #4
1a0007da:	d012      	beq.n	1a000802 <Led_Toggle+0x32>
	{
		Chip_GPIO_SetPinToggle(LPC_GPIO_PORT,LED2_GPIO_PORT,LED2_GPIO_PIN);
		result = TRUE;
	}
	if (led == GREEN_LED)
1a0007dc:	2b05      	cmp	r3, #5
1a0007de:	d017      	beq.n	1a000810 <Led_Toggle+0x40>
	{
		Chip_GPIO_SetPinToggle(LPC_GPIO_PORT,LED3_GPIO_PORT,LED3_GPIO_PIN);
		result = TRUE;
	}
	if (led == RGB_R_LED)
1a0007e0:	b91b      	cbnz	r3, 1a0007ea <Led_Toggle+0x1a>
 * @note	Any bit set as a '0' will not have it's state changed. This only
 * applies to ports configured as an output.
 */
STATIC INLINE void Chip_GPIO_SetPinToggle(LPC_GPIO_T *pGPIO, uint8_t port, uint8_t pin)
{
	pGPIO->NOT[port] = (1 << pin);
1a0007e2:	2001      	movs	r0, #1
1a0007e4:	4a14      	ldr	r2, [pc, #80]	; (1a000838 <Led_Toggle+0x68>)
1a0007e6:	f8c2 0314 	str.w	r0, [r2, #788]	; 0x314
	{
		Chip_GPIO_SetPinToggle(LPC_GPIO_PORT,LED_RGB_R_GPIO_PORT,LED_RGB_R_GPIO_PIN);
		result = TRUE;
	}
	if (led == RGB_G_LED)
1a0007ea:	2b01      	cmp	r3, #1
1a0007ec:	d017      	beq.n	1a00081e <Led_Toggle+0x4e>
	{
		Chip_GPIO_SetPinToggle(LPC_GPIO_PORT,LED_RGB_G_GPIO_PORT,LED_RGB_G_GPIO_PIN);
		result = TRUE;
	}
	if (led == RGB_B_LED)
1a0007ee:	2b02      	cmp	r3, #2
1a0007f0:	d01b      	beq.n	1a00082a <Led_Toggle+0x5a>
		Chip_GPIO_SetPinToggle(LPC_GPIO_PORT,LED_RGB_B_GPIO_PORT,LED_RGB_B_GPIO_PIN);
		result = TRUE;
	}
	return result;
	
}
1a0007f2:	4770      	bx	lr
1a0007f4:	4a10      	ldr	r2, [pc, #64]	; (1a000838 <Led_Toggle+0x68>)
1a0007f6:	f44f 4180 	mov.w	r1, #16384	; 0x4000
1a0007fa:	f8c2 1300 	str.w	r1, [r2, #768]	; 0x300
		result = TRUE;
1a0007fe:	2001      	movs	r0, #1
1a000800:	e7ea      	b.n	1a0007d8 <Led_Toggle+0x8>
1a000802:	4a0d      	ldr	r2, [pc, #52]	; (1a000838 <Led_Toggle+0x68>)
1a000804:	f44f 6100 	mov.w	r1, #2048	; 0x800
1a000808:	f8c2 1304 	str.w	r1, [r2, #772]	; 0x304
		result = TRUE;
1a00080c:	2001      	movs	r0, #1
1a00080e:	e7e5      	b.n	1a0007dc <Led_Toggle+0xc>
1a000810:	4a09      	ldr	r2, [pc, #36]	; (1a000838 <Led_Toggle+0x68>)
1a000812:	f44f 5180 	mov.w	r1, #4096	; 0x1000
1a000816:	f8c2 1304 	str.w	r1, [r2, #772]	; 0x304
		result = TRUE;
1a00081a:	2001      	movs	r0, #1
1a00081c:	e7e0      	b.n	1a0007e0 <Led_Toggle+0x10>
1a00081e:	4a06      	ldr	r2, [pc, #24]	; (1a000838 <Led_Toggle+0x68>)
1a000820:	2102      	movs	r1, #2
1a000822:	f8c2 1314 	str.w	r1, [r2, #788]	; 0x314
		result = TRUE;
1a000826:	4618      	mov	r0, r3
1a000828:	e7e1      	b.n	1a0007ee <Led_Toggle+0x1e>
1a00082a:	4b03      	ldr	r3, [pc, #12]	; (1a000838 <Led_Toggle+0x68>)
1a00082c:	2204      	movs	r2, #4
1a00082e:	f8c3 2314 	str.w	r2, [r3, #788]	; 0x314
		result = TRUE;
1a000832:	2001      	movs	r0, #1
1a000834:	e7dd      	b.n	1a0007f2 <Led_Toggle+0x22>
1a000836:	bf00      	nop
1a000838:	400f6000 	.word	0x400f6000

1a00083c <Board_LED_Init>:
#define GPIO_PORTS_SIZE     (sizeof(GpioPorts) / sizeof(struct gpio_t))


static void Board_LED_Init()
{
    for (uint32_t i = 0; i < GPIO_LEDS_SIZE; ++i) {
1a00083c:	2200      	movs	r2, #0
1a00083e:	2a05      	cmp	r2, #5
1a000840:	d81b      	bhi.n	1a00087a <Board_LED_Init+0x3e>
{
1a000842:	b510      	push	{r4, lr}
        const struct gpio_t *io = &GpioLeds[i];
        Chip_GPIO_SetPinDIROutput(LPC_GPIO_PORT, io->port, io->pin);
1a000844:	4b0d      	ldr	r3, [pc, #52]	; (1a00087c <Board_LED_Init+0x40>)
1a000846:	f813 e012 	ldrb.w	lr, [r3, r2, lsl #1]
1a00084a:	eb03 0342 	add.w	r3, r3, r2, lsl #1
1a00084e:	f893 c001 	ldrb.w	ip, [r3, #1]
	pGPIO->DIR[port] |= 1UL << pin;
1a000852:	4b0b      	ldr	r3, [pc, #44]	; (1a000880 <Board_LED_Init+0x44>)
1a000854:	f50e 6400 	add.w	r4, lr, #2048	; 0x800
1a000858:	f853 1024 	ldr.w	r1, [r3, r4, lsl #2]
1a00085c:	2001      	movs	r0, #1
1a00085e:	fa00 f00c 	lsl.w	r0, r0, ip
1a000862:	4301      	orrs	r1, r0
1a000864:	f843 1024 	str.w	r1, [r3, r4, lsl #2]
	pGPIO->B[port][pin] = setting;
1a000868:	eb03 134e 	add.w	r3, r3, lr, lsl #5
1a00086c:	2100      	movs	r1, #0
1a00086e:	f803 100c 	strb.w	r1, [r3, ip]
    for (uint32_t i = 0; i < GPIO_LEDS_SIZE; ++i) {
1a000872:	3201      	adds	r2, #1
1a000874:	2a05      	cmp	r2, #5
1a000876:	d9e5      	bls.n	1a000844 <Board_LED_Init+0x8>
        Chip_GPIO_SetPinState(LPC_GPIO_PORT, io->port, io->pin, false);
    }
}
1a000878:	bd10      	pop	{r4, pc}
1a00087a:	4770      	bx	lr
1a00087c:	1a002748 	.word	0x1a002748
1a000880:	400f4000 	.word	0x400f4000

1a000884 <Board_TEC_Init>:


static void Board_TEC_Init()
{
    for (uint32_t i = 0; i < GPIO_BUTTONS_SIZE; ++i) {
1a000884:	2300      	movs	r3, #0
1a000886:	2b03      	cmp	r3, #3
1a000888:	d819      	bhi.n	1a0008be <Board_TEC_Init+0x3a>
{
1a00088a:	b410      	push	{r4}
        const struct gpio_t *io = &GpioButtons[i];
        Chip_GPIO_SetPinDIRInput(LPC_GPIO_PORT, io->port, io->pin);
1a00088c:	490c      	ldr	r1, [pc, #48]	; (1a0008c0 <Board_TEC_Init+0x3c>)
1a00088e:	f811 2013 	ldrb.w	r2, [r1, r3, lsl #1]
1a000892:	eb01 0143 	add.w	r1, r1, r3, lsl #1
1a000896:	f891 c001 	ldrb.w	ip, [r1, #1]
	pGPIO->DIR[port] &= ~(1UL << pin);
1a00089a:	4c0a      	ldr	r4, [pc, #40]	; (1a0008c4 <Board_TEC_Init+0x40>)
1a00089c:	f502 6200 	add.w	r2, r2, #2048	; 0x800
1a0008a0:	f854 1022 	ldr.w	r1, [r4, r2, lsl #2]
1a0008a4:	2001      	movs	r0, #1
1a0008a6:	fa00 f00c 	lsl.w	r0, r0, ip
1a0008aa:	ea21 0100 	bic.w	r1, r1, r0
1a0008ae:	f844 1022 	str.w	r1, [r4, r2, lsl #2]
    for (uint32_t i = 0; i < GPIO_BUTTONS_SIZE; ++i) {
1a0008b2:	3301      	adds	r3, #1
1a0008b4:	2b03      	cmp	r3, #3
1a0008b6:	d9e9      	bls.n	1a00088c <Board_TEC_Init+0x8>
    }
}
1a0008b8:	f85d 4b04 	ldr.w	r4, [sp], #4
1a0008bc:	4770      	bx	lr
1a0008be:	4770      	bx	lr
1a0008c0:	1a002740 	.word	0x1a002740
1a0008c4:	400f4000 	.word	0x400f4000

1a0008c8 <Board_GPIO_Init>:


static void Board_GPIO_Init()
{
    for (uint32_t i = 0; i < GPIO_PORTS_SIZE; ++i) {
1a0008c8:	2300      	movs	r3, #0
1a0008ca:	2b08      	cmp	r3, #8
1a0008cc:	d819      	bhi.n	1a000902 <Board_GPIO_Init+0x3a>
{
1a0008ce:	b410      	push	{r4}
        const struct gpio_t *io = &GpioPorts[i];
        Chip_GPIO_SetPinDIRInput(LPC_GPIO_PORT, io->port, io->pin);
1a0008d0:	490c      	ldr	r1, [pc, #48]	; (1a000904 <Board_GPIO_Init+0x3c>)
1a0008d2:	f811 2013 	ldrb.w	r2, [r1, r3, lsl #1]
1a0008d6:	eb01 0143 	add.w	r1, r1, r3, lsl #1
1a0008da:	f891 c001 	ldrb.w	ip, [r1, #1]
1a0008de:	4c0a      	ldr	r4, [pc, #40]	; (1a000908 <Board_GPIO_Init+0x40>)
1a0008e0:	f502 6200 	add.w	r2, r2, #2048	; 0x800
1a0008e4:	f854 1022 	ldr.w	r1, [r4, r2, lsl #2]
1a0008e8:	2001      	movs	r0, #1
1a0008ea:	fa00 f00c 	lsl.w	r0, r0, ip
1a0008ee:	ea21 0100 	bic.w	r1, r1, r0
1a0008f2:	f844 1022 	str.w	r1, [r4, r2, lsl #2]
    for (uint32_t i = 0; i < GPIO_PORTS_SIZE; ++i) {
1a0008f6:	3301      	adds	r3, #1
1a0008f8:	2b08      	cmp	r3, #8
1a0008fa:	d9e9      	bls.n	1a0008d0 <Board_GPIO_Init+0x8>
    }
}
1a0008fc:	f85d 4b04 	ldr.w	r4, [sp], #4
1a000900:	4770      	bx	lr
1a000902:	4770      	bx	lr
1a000904:	1a002754 	.word	0x1a002754
1a000908:	400f4000 	.word	0x400f4000

1a00090c <Board_ADC_Init>:
    Chip_SSP_Enable(LPC_SSP1);
}


static void Board_ADC_Init()
{
1a00090c:	b510      	push	{r4, lr}
1a00090e:	b082      	sub	sp, #8
    ADC_CLOCK_SETUP_T cs;

    Chip_ADC_Init(LPC_ADC0, &cs);
1a000910:	4c08      	ldr	r4, [pc, #32]	; (1a000934 <Board_ADC_Init+0x28>)
1a000912:	4669      	mov	r1, sp
1a000914:	4620      	mov	r0, r4
1a000916:	f000 f903 	bl	1a000b20 <Chip_ADC_Init>
    Chip_ADC_SetSampleRate(LPC_ADC0, &cs, BOARD_ADC_SAMPLE_RATE);
1a00091a:	4a07      	ldr	r2, [pc, #28]	; (1a000938 <Board_ADC_Init+0x2c>)
1a00091c:	4669      	mov	r1, sp
1a00091e:	4620      	mov	r0, r4
1a000920:	f000 f91e 	bl	1a000b60 <Chip_ADC_SetSampleRate>
    Chip_ADC_SetResolution(LPC_ADC0, &cs, BOARD_ADC_RESOLUTION);
1a000924:	2200      	movs	r2, #0
1a000926:	4669      	mov	r1, sp
1a000928:	4620      	mov	r0, r4
1a00092a:	f000 f932 	bl	1a000b92 <Chip_ADC_SetResolution>
}
1a00092e:	b002      	add	sp, #8
1a000930:	bd10      	pop	{r4, pc}
1a000932:	bf00      	nop
1a000934:	400e3000 	.word	0x400e3000
1a000938:	00061a80 	.word	0x00061a80

1a00093c <Board_SPI_Init>:
{
1a00093c:	b510      	push	{r4, lr}
    Chip_SSP_Init(LPC_SSP1);
1a00093e:	4c0b      	ldr	r4, [pc, #44]	; (1a00096c <Board_SPI_Init+0x30>)
1a000940:	4620      	mov	r0, r4
1a000942:	f000 fc8b 	bl	1a00125c <Chip_SSP_Init>
 *						- SSP_MODE_SLAVE
 * @return	 Nothing
 */
STATIC INLINE void Chip_SSP_Set_Mode(LPC_SSP_T *pSSP, uint32_t mode)
{
	pSSP->CR1 = (pSSP->CR1 & ~(1 << 2)) | mode;
1a000946:	6863      	ldr	r3, [r4, #4]
1a000948:	f023 0304 	bic.w	r3, r3, #4
1a00094c:	6063      	str	r3, [r4, #4]
	pSSP->CR0 = (pSSP->CR0 & ~0xFF) | bits | frameFormat | clockMode;
1a00094e:	6823      	ldr	r3, [r4, #0]
1a000950:	f023 03ff 	bic.w	r3, r3, #255	; 0xff
1a000954:	f043 0307 	orr.w	r3, r3, #7
1a000958:	6023      	str	r3, [r4, #0]
    Chip_SSP_SetBitRate(LPC_SSP1, BOARD_SPI_SPEED);
1a00095a:	4905      	ldr	r1, [pc, #20]	; (1a000970 <Board_SPI_Init+0x34>)
1a00095c:	4620      	mov	r0, r4
1a00095e:	f000 fc5c 	bl	1a00121a <Chip_SSP_SetBitRate>
	pSSP->CR1 |= SSP_CR1_SSP_EN;
1a000962:	6863      	ldr	r3, [r4, #4]
1a000964:	f043 0302 	orr.w	r3, r3, #2
1a000968:	6063      	str	r3, [r4, #4]
}
1a00096a:	bd10      	pop	{r4, pc}
1a00096c:	400c5000 	.word	0x400c5000
1a000970:	000186a0 	.word	0x000186a0

1a000974 <Board_I2C_Init>:
{
1a000974:	b508      	push	{r3, lr}
    Chip_I2C_Init(I2C0);
1a000976:	2000      	movs	r0, #0
1a000978:	f000 fbfe 	bl	1a001178 <Chip_I2C_Init>
 *                  - I2C0_FAST_MODE_PLUS: Fast-mode Plus transmit
 * @return	Nothing
 */
STATIC INLINE void Chip_SCU_I2C0PinConfig(uint32_t I2C0Mode)
{
	LPC_SCU->SFSI2C0 = I2C0Mode;
1a00097c:	4b04      	ldr	r3, [pc, #16]	; (1a000990 <Board_I2C_Init+0x1c>)
1a00097e:	f640 0208 	movw	r2, #2056	; 0x808
1a000982:	f8c3 2c84 	str.w	r2, [r3, #3204]	; 0xc84
    Chip_I2C_SetClockRate(I2C0, BOARD_I2C_SPEED);
1a000986:	4903      	ldr	r1, [pc, #12]	; (1a000994 <Board_I2C_Init+0x20>)
1a000988:	2000      	movs	r0, #0
1a00098a:	f000 fc09 	bl	1a0011a0 <Chip_I2C_SetClockRate>
}
1a00098e:	bd08      	pop	{r3, pc}
1a000990:	40086000 	.word	0x40086000
1a000994:	000f4240 	.word	0x000f4240

1a000998 <Board_Debug_Init>:


void Board_Debug_Init(void)
{
1a000998:	b510      	push	{r4, lr}
    Chip_UART_Init(DEBUG_UART);
1a00099a:	4c07      	ldr	r4, [pc, #28]	; (1a0009b8 <Board_Debug_Init+0x20>)
1a00099c:	4620      	mov	r0, r4
1a00099e:	f000 fd3b 	bl	1a001418 <Chip_UART_Init>
    Chip_UART_SetBaudFDR(DEBUG_UART, DEBUG_UART_BAUD_RATE);
1a0009a2:	f44f 31e1 	mov.w	r1, #115200	; 0x1c200
1a0009a6:	4620      	mov	r0, r4
1a0009a8:	f000 fd60 	bl	1a00146c <Chip_UART_SetBaudFDR>
 *			stop bit, and even (enabled) parity would be
 *			(UART_LCR_WLEN8 | UART_LCR_SBS_1BIT | UART_LCR_PARITY_EN | UART_LCR_PARITY_EVEN)
 */
STATIC INLINE void Chip_UART_ConfigData(LPC_USART_T *pUART, uint32_t config)
{
	pUART->LCR = config;
1a0009ac:	2303      	movs	r3, #3
1a0009ae:	60e3      	str	r3, [r4, #12]
    pUART->TER2 = UART_TER2_TXEN;
1a0009b0:	2301      	movs	r3, #1
1a0009b2:	65e3      	str	r3, [r4, #92]	; 0x5c
    Chip_UART_ConfigData(DEBUG_UART, DEBUG_UART_CONFIG);
    Chip_UART_TXEnable(DEBUG_UART);
}
1a0009b4:	bd10      	pop	{r4, pc}
1a0009b6:	bf00      	nop
1a0009b8:	400c1000 	.word	0x400c1000

1a0009bc <Board_UARTPutChar>:
 * @note	Mask bits of the returned status value with UART_LSR_*
 *			definitions for specific statuses.
 */
STATIC INLINE uint32_t Chip_UART_ReadLineStatus(LPC_USART_T *pUART)
{
	return pUART->LSR;
1a0009bc:	4b03      	ldr	r3, [pc, #12]	; (1a0009cc <Board_UARTPutChar+0x10>)
1a0009be:	695b      	ldr	r3, [r3, #20]


void Board_UARTPutChar(char ch)
{
    while ( !(Chip_UART_ReadLineStatus(DEBUG_UART) & UART_LSR_THRE));
1a0009c0:	f013 0f20 	tst.w	r3, #32
1a0009c4:	d0fa      	beq.n	1a0009bc <Board_UARTPutChar>
	pUART->THR = (uint32_t) data;
1a0009c6:	4b01      	ldr	r3, [pc, #4]	; (1a0009cc <Board_UARTPutChar+0x10>)
1a0009c8:	6018      	str	r0, [r3, #0]
    Chip_UART_SendByte(DEBUG_UART, (uint8_t) ch);
}
1a0009ca:	4770      	bx	lr
1a0009cc:	400c1000 	.word	0x400c1000

1a0009d0 <Board_UARTGetChar>:
	return pUART->LSR;
1a0009d0:	4b05      	ldr	r3, [pc, #20]	; (1a0009e8 <Board_UARTGetChar+0x18>)
1a0009d2:	695b      	ldr	r3, [r3, #20]


int Board_UARTGetChar(void)
{
    if (Chip_UART_ReadLineStatus(DEBUG_UART) & UART_LSR_RDR) {
1a0009d4:	f013 0f01 	tst.w	r3, #1
1a0009d8:	d003      	beq.n	1a0009e2 <Board_UARTGetChar+0x12>
	return (uint8_t) (pUART->RBR & UART_RBR_MASKBIT);
1a0009da:	4b03      	ldr	r3, [pc, #12]	; (1a0009e8 <Board_UARTGetChar+0x18>)
1a0009dc:	6818      	ldr	r0, [r3, #0]
       return (int) Chip_UART_ReadByte(DEBUG_UART);
1a0009de:	b2c0      	uxtb	r0, r0
1a0009e0:	4770      	bx	lr
    }
    return EOF;
1a0009e2:	f04f 30ff 	mov.w	r0, #4294967295	; 0xffffffff
}
1a0009e6:	4770      	bx	lr
1a0009e8:	400c1000 	.word	0x400c1000

1a0009ec <Board_Init>:
    Board_LED_Set(LEDNumber, !Board_LED_Test(LEDNumber));
}


void Board_Init(void)
{
1a0009ec:	b508      	push	{r3, lr}
   DEBUGINIT();
1a0009ee:	f7ff ffd3 	bl	1a000998 <Board_Debug_Init>
   Chip_GPIO_Init (LPC_GPIO_PORT);
1a0009f2:	4808      	ldr	r0, [pc, #32]	; (1a000a14 <Board_Init+0x28>)
1a0009f4:	f000 fbae 	bl	1a001154 <Chip_GPIO_Init>
   
   Board_GPIO_Init();
1a0009f8:	f7ff ff66 	bl	1a0008c8 <Board_GPIO_Init>
   Board_ADC_Init();
1a0009fc:	f7ff ff86 	bl	1a00090c <Board_ADC_Init>
   Board_SPI_Init();
1a000a00:	f7ff ff9c 	bl	1a00093c <Board_SPI_Init>
   Board_I2C_Init();
1a000a04:	f7ff ffb6 	bl	1a000974 <Board_I2C_Init>

   Board_LED_Init();
1a000a08:	f7ff ff18 	bl	1a00083c <Board_LED_Init>
   Board_TEC_Init();
1a000a0c:	f7ff ff3a 	bl	1a000884 <Board_TEC_Init>

   #ifdef USE_RMII
   Chip_ENET_RMIIEnable(LPC_ETHERNET);
   #endif
}
1a000a10:	bd08      	pop	{r3, pc}
1a000a12:	bf00      	nop
1a000a14:	400f4000 	.word	0x400f4000

1a000a18 <__stdio_putchar>:
    Chip_ADC_EnableChannel(LPC_ADC0, curADCChannel, DISABLE);
    curADCChannel = 0xFF;
    return data;
}

void __stdio_putchar(int c) {
1a000a18:	b508      	push	{r3, lr}
   Board_UARTPutChar(c);
1a000a1a:	b2c0      	uxtb	r0, r0
1a000a1c:	f7ff ffce 	bl	1a0009bc <Board_UARTPutChar>
}
1a000a20:	bd08      	pop	{r3, pc}

1a000a22 <__stdio_getchar>:

int __stdio_getchar() {
1a000a22:	b508      	push	{r3, lr}
   return Board_UARTGetChar();;
1a000a24:	f7ff ffd4 	bl	1a0009d0 <Board_UARTGetChar>
}
1a000a28:	bd08      	pop	{r3, pc}

1a000a2a <__stdio_init>:

void __stdio_init() {
1a000a2a:	b508      	push	{r3, lr}
   Board_Debug_Init();
1a000a2c:	f7ff ffb4 	bl	1a000998 <Board_Debug_Init>
1a000a30:	bd08      	pop	{r3, pc}
	...

1a000a34 <Board_SetupMuxing>:
 * @return	Nothing
 */
STATIC INLINE void Chip_SCU_SetPinMuxing(const PINMUX_GRP_T *pinArray, uint32_t arrayLength)
{
	uint32_t ix;
	for (ix = 0; ix < arrayLength; ix++ ) {
1a000a34:	2300      	movs	r3, #0
1a000a36:	e00c      	b.n	1a000a52 <Board_SetupMuxing+0x1e>
		Chip_SCU_PinMuxSet(pinArray[ix].pingrp, pinArray[ix].pinnum, pinArray[ix].modefunc);
1a000a38:	4a07      	ldr	r2, [pc, #28]	; (1a000a58 <Board_SetupMuxing+0x24>)
1a000a3a:	eb02 0183 	add.w	r1, r2, r3, lsl #2
1a000a3e:	f812 c023 	ldrb.w	ip, [r2, r3, lsl #2]
1a000a42:	784a      	ldrb	r2, [r1, #1]
1a000a44:	8848      	ldrh	r0, [r1, #2]
	LPC_SCU->SFSP[port][pin] = modefunc;
1a000a46:	eb02 124c 	add.w	r2, r2, ip, lsl #5
1a000a4a:	4904      	ldr	r1, [pc, #16]	; (1a000a5c <Board_SetupMuxing+0x28>)
1a000a4c:	f841 0022 	str.w	r0, [r1, r2, lsl #2]
	for (ix = 0; ix < arrayLength; ix++ ) {
1a000a50:	3301      	adds	r3, #1
1a000a52:	2b1c      	cmp	r3, #28
1a000a54:	d9f0      	bls.n	1a000a38 <Board_SetupMuxing+0x4>


void Board_SetupMuxing(void)
{
    Chip_SCU_SetPinMuxing(pinmuxing, sizeof(pinmuxing) / sizeof(PINMUX_GRP_T));
}
1a000a56:	4770      	bx	lr
1a000a58:	1a002770 	.word	0x1a002770
1a000a5c:	40086000 	.word	0x40086000

1a000a60 <Board_SetupClocking>:


void Board_SetupClocking(void)
{
1a000a60:	b510      	push	{r4, lr}
 */
STATIC INLINE void Chip_CREG_SetFlashAcceleration(uint32_t Hz)
{
	uint32_t FAValue = Hz / 21510000;

	LPC_CREG->FLASHCFGA = (LPC_CREG->FLASHCFGA & (~(0xF << 12))) | (FAValue << 12);
1a000a62:	4a17      	ldr	r2, [pc, #92]	; (1a000ac0 <Board_SetupClocking+0x60>)
1a000a64:	f8d2 3120 	ldr.w	r3, [r2, #288]	; 0x120
1a000a68:	f423 4370 	bic.w	r3, r3, #61440	; 0xf000
1a000a6c:	f443 4310 	orr.w	r3, r3, #36864	; 0x9000
1a000a70:	f8c2 3120 	str.w	r3, [r2, #288]	; 0x120
	LPC_CREG->FLASHCFGB = (LPC_CREG->FLASHCFGB & (~(0xF << 12))) | (FAValue << 12);
1a000a74:	f8d2 3124 	ldr.w	r3, [r2, #292]	; 0x124
1a000a78:	f423 4370 	bic.w	r3, r3, #61440	; 0xf000
1a000a7c:	f443 4310 	orr.w	r3, r3, #36864	; 0x9000
1a000a80:	f8c2 3124 	str.w	r3, [r2, #292]	; 0x124
    Chip_CREG_SetFlashAcceleration(MAX_CLOCK_FREQ);
    Chip_SetupCoreClock(CLKIN_CRYSTAL, MAX_CLOCK_FREQ, true);
1a000a84:	2201      	movs	r2, #1
1a000a86:	490f      	ldr	r1, [pc, #60]	; (1a000ac4 <Board_SetupClocking+0x64>)
1a000a88:	2006      	movs	r0, #6
1a000a8a:	f000 fc03 	bl	1a001294 <Chip_SetupCoreClock>

    /* Setup system base clocks and initial states. This won't enable and
       disable individual clocks, but sets up the base clock sources for
       each individual peripheral clock. */
    for (uint32_t i = 0; i < (sizeof(InitClkStates) / sizeof(InitClkStates[0])); ++i)
1a000a8e:	2400      	movs	r4, #0
1a000a90:	b14c      	cbz	r4, 1a000aa6 <Board_SetupClocking+0x46>
        Chip_Clock_SetBaseClock (c->clk, c->clkin, c->autoblock_enab,
                                c->powerdn);
    }

    /* Reset and enable 32Khz oscillator */
    LPC_CREG->CREG0 &= ~((1 << 3) | (1 << 2));
1a000a92:	4b0b      	ldr	r3, [pc, #44]	; (1a000ac0 <Board_SetupClocking+0x60>)
1a000a94:	685a      	ldr	r2, [r3, #4]
1a000a96:	f022 020c 	bic.w	r2, r2, #12
1a000a9a:	605a      	str	r2, [r3, #4]
    LPC_CREG->CREG0 |= (1 << 1) | (1 << 0);
1a000a9c:	685a      	ldr	r2, [r3, #4]
1a000a9e:	f042 0203 	orr.w	r2, r2, #3
1a000aa2:	605a      	str	r2, [r3, #4]
}
1a000aa4:	bd10      	pop	{r4, pc}
        Chip_Clock_SetBaseClock (c->clk, c->clkin, c->autoblock_enab,
1a000aa6:	4808      	ldr	r0, [pc, #32]	; (1a000ac8 <Board_SetupClocking+0x68>)
1a000aa8:	eb00 0184 	add.w	r1, r0, r4, lsl #2
1a000aac:	2301      	movs	r3, #1
1a000aae:	788a      	ldrb	r2, [r1, #2]
1a000ab0:	7849      	ldrb	r1, [r1, #1]
1a000ab2:	f810 0024 	ldrb.w	r0, [r0, r4, lsl #2]
1a000ab6:	f000 faa7 	bl	1a001008 <Chip_Clock_SetBaseClock>
    for (uint32_t i = 0; i < (sizeof(InitClkStates) / sizeof(InitClkStates[0])); ++i)
1a000aba:	3401      	adds	r4, #1
1a000abc:	e7e8      	b.n	1a000a90 <Board_SetupClocking+0x30>
1a000abe:	bf00      	nop
1a000ac0:	40043000 	.word	0x40043000
1a000ac4:	0c28cb00 	.word	0x0c28cb00
1a000ac8:	1a00276c 	.word	0x1a00276c

1a000acc <Board_SystemInit>:


/* Set up and initialize hardware prior to call to main */
void Board_SystemInit(void)
{
1a000acc:	b508      	push	{r3, lr}
    /* Setup system clocking and memory. This is done early to allow the
       application and tools to clear memory and use scatter loading to
       external memory. */
    Board_SetupMuxing();
1a000ace:	f7ff ffb1 	bl	1a000a34 <Board_SetupMuxing>
    Board_SetupClocking();
1a000ad2:	f7ff ffc5 	bl	1a000a60 <Board_SetupClocking>
}
1a000ad6:	bd08      	pop	{r3, pc}

1a000ad8 <Chip_ADC_GetClockIndex>:
/* Returns clock index for the peripheral block */
STATIC CHIP_CCU_CLK_T Chip_ADC_GetClockIndex(LPC_ADC_T *pADC)
{
	CHIP_CCU_CLK_T clkADC;

	if (pADC == LPC_ADC1) {
1a000ad8:	4b03      	ldr	r3, [pc, #12]	; (1a000ae8 <Chip_ADC_GetClockIndex+0x10>)
1a000ada:	4298      	cmp	r0, r3
1a000adc:	d001      	beq.n	1a000ae2 <Chip_ADC_GetClockIndex+0xa>
		clkADC = CLK_APB3_ADC1;
	}
	else {
		clkADC = CLK_APB3_ADC0;
1a000ade:	2003      	movs	r0, #3
	}

	return clkADC;
}
1a000ae0:	4770      	bx	lr
		clkADC = CLK_APB3_ADC1;
1a000ae2:	2004      	movs	r0, #4
1a000ae4:	4770      	bx	lr
1a000ae6:	bf00      	nop
1a000ae8:	400e4000 	.word	0x400e4000

1a000aec <getClkDiv>:

/* Get divider value */
STATIC uint8_t getClkDiv(LPC_ADC_T *pADC, bool burstMode, uint32_t adcRate, uint8_t clks)
{
1a000aec:	b570      	push	{r4, r5, r6, lr}
1a000aee:	460d      	mov	r5, r1
1a000af0:	4614      	mov	r4, r2
1a000af2:	461e      	mov	r6, r3
	   A/D converter, which should be less than or equal to 4.5MHz.
	   A fully conversion requires (bits_accuracy+1) of these clocks.
	   ADC Clock = PCLK_ADC0 / (CLKDIV + 1);
	   ADC rate = ADC clock / (the number of clocks required for each conversion);
	 */
	adcBlockFreq = Chip_Clock_GetRate(Chip_ADC_GetClockIndex(pADC));
1a000af4:	f7ff fff0 	bl	1a000ad8 <Chip_ADC_GetClockIndex>
1a000af8:	f000 fb06 	bl	1a001108 <Chip_Clock_GetRate>
	if (burstMode) {
1a000afc:	b155      	cbz	r5, 1a000b14 <getClkDiv+0x28>
		fullAdcRate = adcRate * clks;
1a000afe:	fb06 f404 	mul.w	r4, r6, r4
	else {
		fullAdcRate = adcRate * getFullConvClk();
	}

	/* Get the round value by fomular: (2*A + B)/(2*B) */
	div = ((adcBlockFreq * 2 + fullAdcRate) / (fullAdcRate * 2)) - 1;
1a000b02:	eb04 0040 	add.w	r0, r4, r0, lsl #1
1a000b06:	0064      	lsls	r4, r4, #1
1a000b08:	fbb0 f0f4 	udiv	r0, r0, r4
1a000b0c:	b2c0      	uxtb	r0, r0
1a000b0e:	3801      	subs	r0, #1
	return div;
}
1a000b10:	b2c0      	uxtb	r0, r0
1a000b12:	bd70      	pop	{r4, r5, r6, pc}
		fullAdcRate = adcRate * getFullConvClk();
1a000b14:	eb04 0384 	add.w	r3, r4, r4, lsl #2
1a000b18:	eb04 0443 	add.w	r4, r4, r3, lsl #1
1a000b1c:	e7f1      	b.n	1a000b02 <getClkDiv+0x16>
	...

1a000b20 <Chip_ADC_Init>:
 * Public functions
 ****************************************************************************/

/* Initialize the ADC peripheral and the ADC setup structure to default value */
void Chip_ADC_Init(LPC_ADC_T *pADC, ADC_CLOCK_SETUP_T *ADCSetup)
{
1a000b20:	b538      	push	{r3, r4, r5, lr}
1a000b22:	4605      	mov	r5, r0
1a000b24:	460c      	mov	r4, r1
	uint8_t div;
	uint32_t cr = 0;
	uint32_t clk;

	Chip_Clock_EnableOpts(Chip_ADC_GetClockIndex(pADC), true, true, 1);
1a000b26:	f7ff ffd7 	bl	1a000ad8 <Chip_ADC_GetClockIndex>
1a000b2a:	2301      	movs	r3, #1
1a000b2c:	461a      	mov	r2, r3
1a000b2e:	4619      	mov	r1, r3
1a000b30:	f000 fab2 	bl	1a001098 <Chip_Clock_EnableOpts>

	pADC->INTEN = 0;		/* Disable all interrupts */
1a000b34:	2100      	movs	r1, #0
1a000b36:	60e9      	str	r1, [r5, #12]

	cr |= ADC_CR_PDN;
	ADCSetup->adcRate = ADC_MAX_SAMPLE_RATE;
1a000b38:	4a08      	ldr	r2, [pc, #32]	; (1a000b5c <Chip_ADC_Init+0x3c>)
1a000b3a:	6022      	str	r2, [r4, #0]
	ADCSetup->bitsAccuracy = ADC_10BITS;
1a000b3c:	7121      	strb	r1, [r4, #4]
	clk = 11;
	ADCSetup->burstMode = false;
1a000b3e:	7161      	strb	r1, [r4, #5]
	div = getClkDiv(pADC, false, ADCSetup->adcRate, clk);
1a000b40:	230b      	movs	r3, #11
1a000b42:	4628      	mov	r0, r5
1a000b44:	f7ff ffd2 	bl	1a000aec <getClkDiv>
	cr |= ADC_CR_CLKDIV(div);
1a000b48:	0200      	lsls	r0, r0, #8
1a000b4a:	f440 1000 	orr.w	r0, r0, #2097152	; 0x200000
	cr |= ADC_CR_BITACC(ADCSetup->bitsAccuracy);
1a000b4e:	7923      	ldrb	r3, [r4, #4]
1a000b50:	045b      	lsls	r3, r3, #17
1a000b52:	f403 2360 	and.w	r3, r3, #917504	; 0xe0000
1a000b56:	4303      	orrs	r3, r0
	pADC->CR = cr;
1a000b58:	602b      	str	r3, [r5, #0]
}
1a000b5a:	bd38      	pop	{r3, r4, r5, pc}
1a000b5c:	00061a80 	.word	0x00061a80

1a000b60 <Chip_ADC_SetSampleRate>:
	setStartMode(pADC, (uint8_t) mode);
}

/* Set the ADC Sample rate */
void Chip_ADC_SetSampleRate(LPC_ADC_T *pADC, ADC_CLOCK_SETUP_T *ADCSetup, uint32_t rate)
{
1a000b60:	b570      	push	{r4, r5, r6, lr}
1a000b62:	4605      	mov	r5, r0
1a000b64:	460e      	mov	r6, r1
	uint8_t div;
	uint32_t cr;

	cr = pADC->CR & (~ADC_SAMPLE_RATE_CONFIG_MASK);
1a000b66:	6804      	ldr	r4, [r0, #0]
1a000b68:	f424 246f 	bic.w	r4, r4, #978944	; 0xef000
1a000b6c:	f424 6470 	bic.w	r4, r4, #3840	; 0xf00
	ADCSetup->adcRate = rate;
1a000b70:	600a      	str	r2, [r1, #0]
	div = getClkDiv(pADC, ADCSetup->burstMode, rate, (11 - ADCSetup->bitsAccuracy));
1a000b72:	790b      	ldrb	r3, [r1, #4]
1a000b74:	f1c3 030b 	rsb	r3, r3, #11
1a000b78:	b2db      	uxtb	r3, r3
1a000b7a:	7949      	ldrb	r1, [r1, #5]
1a000b7c:	f7ff ffb6 	bl	1a000aec <getClkDiv>
	cr |= ADC_CR_CLKDIV(div);
1a000b80:	ea44 2400 	orr.w	r4, r4, r0, lsl #8
	cr |= ADC_CR_BITACC(ADCSetup->bitsAccuracy);
1a000b84:	7933      	ldrb	r3, [r6, #4]
1a000b86:	045b      	lsls	r3, r3, #17
1a000b88:	f403 2360 	and.w	r3, r3, #917504	; 0xe0000
1a000b8c:	4323      	orrs	r3, r4
	pADC->CR = cr;
1a000b8e:	602b      	str	r3, [r5, #0]
}
1a000b90:	bd70      	pop	{r4, r5, r6, pc}

1a000b92 <Chip_ADC_SetResolution>:

/* Set the ADC accuracy bits */
void Chip_ADC_SetResolution(LPC_ADC_T *pADC, ADC_CLOCK_SETUP_T *ADCSetup, ADC_RESOLUTION_T resolution)
{
1a000b92:	b508      	push	{r3, lr}
	ADCSetup->bitsAccuracy = resolution;
1a000b94:	710a      	strb	r2, [r1, #4]
	Chip_ADC_SetSampleRate(pADC, ADCSetup, ADCSetup->adcRate);
1a000b96:	680a      	ldr	r2, [r1, #0]
1a000b98:	f7ff ffe2 	bl	1a000b60 <Chip_ADC_SetSampleRate>
}
1a000b9c:	bd08      	pop	{r3, pc}
	...

1a000ba0 <SystemCoreClockUpdate>:


/* Update system core clock rate, should be called if the system has
   a clock rate change */
void SystemCoreClockUpdate(void)
{
1a000ba0:	b508      	push	{r3, lr}
	/* CPU core speed */
	SystemCoreClock = Chip_Clock_GetRate(CLK_MX_MXCORE);
1a000ba2:	2069      	movs	r0, #105	; 0x69
1a000ba4:	f000 fab0 	bl	1a001108 <Chip_Clock_GetRate>
1a000ba8:	4b01      	ldr	r3, [pc, #4]	; (1a000bb0 <SystemCoreClockUpdate+0x10>)
1a000baa:	6018      	str	r0, [r3, #0]
}
1a000bac:	bd08      	pop	{r3, pc}
1a000bae:	bf00      	nop
1a000bb0:	100000a8 	.word	0x100000a8

1a000bb4 <pll_calc_divs>:
		return -val;
	return val;
}

static void pll_calc_divs(uint32_t freq, PLL_PARAM_T *ppll)
{
1a000bb4:	b570      	push	{r4, r5, r6, lr}
1a000bb6:	4686      	mov	lr, r0

	uint32_t prev = freq;
	int n, m, p;

	/* When direct mode is set FBSEL should be a don't care */
	if (ppll->ctrl & (1 << 7)) {
1a000bb8:	680b      	ldr	r3, [r1, #0]
1a000bba:	f013 0f80 	tst.w	r3, #128	; 0x80
1a000bbe:	d002      	beq.n	1a000bc6 <pll_calc_divs+0x12>
		ppll->ctrl &= ~(1 << 6);
1a000bc0:	f023 0340 	bic.w	r3, r3, #64	; 0x40
1a000bc4:	600b      	str	r3, [r1, #0]
	}
	for (n = 1; n <= 4; n++) {
		for (p = 0; p < 4; p ++) {
1a000bc6:	4675      	mov	r5, lr
1a000bc8:	2401      	movs	r4, #1
1a000bca:	e03c      	b.n	1a000c46 <pll_calc_divs+0x92>
			for (m = 1; m <= 256; m++) {
				uint32_t fcco, fout;
				if (ppll->ctrl & (1 << 6)) {
					fcco = ((m << (p + 1)) * ppll->fin) / n;
				} else {
					fcco = (m * ppll->fin) / n;
1a000bcc:	694b      	ldr	r3, [r1, #20]
1a000bce:	fb02 f303 	mul.w	r3, r2, r3
1a000bd2:	fbb3 f3f4 	udiv	r3, r3, r4
1a000bd6:	e01e      	b.n	1a000c16 <pll_calc_divs+0x62>
				}
				if (fcco < PLL_MIN_CCO_FREQ) continue;
				if (fcco > PLL_MAX_CCO_FREQ) break;
				if (ppll->ctrl & (1 << 7)) {
					fout = fcco;
1a000bd8:	4618      	mov	r0, r3
	if (val < 0)
1a000bda:	ebbe 0600 	subs.w	r6, lr, r0
1a000bde:	d428      	bmi.n	1a000c32 <pll_calc_divs+0x7e>
				} else {
					fout = fcco >> (p + 1);
				}

				if (ABS(freq - fout) < prev) {
1a000be0:	42b5      	cmp	r5, r6
1a000be2:	d907      	bls.n	1a000bf4 <pll_calc_divs+0x40>
					ppll->nsel = n;
1a000be4:	608c      	str	r4, [r1, #8]
					ppll->psel = p + 1;
1a000be6:	f10c 0501 	add.w	r5, ip, #1
1a000bea:	60cd      	str	r5, [r1, #12]
					ppll->msel = m;
1a000bec:	610a      	str	r2, [r1, #16]
					ppll->fout = fout;
1a000bee:	6188      	str	r0, [r1, #24]
					ppll->fcco = fcco;
1a000bf0:	61cb      	str	r3, [r1, #28]
					prev = ABS(freq - fout);
1a000bf2:	4635      	mov	r5, r6
			for (m = 1; m <= 256; m++) {
1a000bf4:	3201      	adds	r2, #1
1a000bf6:	f5b2 7f80 	cmp.w	r2, #256	; 0x100
1a000bfa:	dc1c      	bgt.n	1a000c36 <pll_calc_divs+0x82>
				if (ppll->ctrl & (1 << 6)) {
1a000bfc:	680e      	ldr	r6, [r1, #0]
1a000bfe:	f016 0f40 	tst.w	r6, #64	; 0x40
1a000c02:	d0e3      	beq.n	1a000bcc <pll_calc_divs+0x18>
					fcco = ((m << (p + 1)) * ppll->fin) / n;
1a000c04:	f10c 0301 	add.w	r3, ip, #1
1a000c08:	fa02 f303 	lsl.w	r3, r2, r3
1a000c0c:	6948      	ldr	r0, [r1, #20]
1a000c0e:	fb00 f303 	mul.w	r3, r0, r3
1a000c12:	fbb3 f3f4 	udiv	r3, r3, r4
				if (fcco < PLL_MIN_CCO_FREQ) continue;
1a000c16:	480f      	ldr	r0, [pc, #60]	; (1a000c54 <pll_calc_divs+0xa0>)
1a000c18:	4283      	cmp	r3, r0
1a000c1a:	d9eb      	bls.n	1a000bf4 <pll_calc_divs+0x40>
				if (fcco > PLL_MAX_CCO_FREQ) break;
1a000c1c:	480e      	ldr	r0, [pc, #56]	; (1a000c58 <pll_calc_divs+0xa4>)
1a000c1e:	4283      	cmp	r3, r0
1a000c20:	d809      	bhi.n	1a000c36 <pll_calc_divs+0x82>
				if (ppll->ctrl & (1 << 7)) {
1a000c22:	f016 0f80 	tst.w	r6, #128	; 0x80
1a000c26:	d1d7      	bne.n	1a000bd8 <pll_calc_divs+0x24>
					fout = fcco >> (p + 1);
1a000c28:	f10c 0001 	add.w	r0, ip, #1
1a000c2c:	fa23 f000 	lsr.w	r0, r3, r0
1a000c30:	e7d3      	b.n	1a000bda <pll_calc_divs+0x26>
		return -val;
1a000c32:	4276      	negs	r6, r6
1a000c34:	e7d4      	b.n	1a000be0 <pll_calc_divs+0x2c>
		for (p = 0; p < 4; p ++) {
1a000c36:	f10c 0c01 	add.w	ip, ip, #1
1a000c3a:	f1bc 0f03 	cmp.w	ip, #3
1a000c3e:	dc01      	bgt.n	1a000c44 <pll_calc_divs+0x90>
			for (m = 1; m <= 256; m++) {
1a000c40:	2201      	movs	r2, #1
1a000c42:	e7d8      	b.n	1a000bf6 <pll_calc_divs+0x42>
	for (n = 1; n <= 4; n++) {
1a000c44:	3401      	adds	r4, #1
1a000c46:	2c04      	cmp	r4, #4
1a000c48:	dc02      	bgt.n	1a000c50 <pll_calc_divs+0x9c>
		for (p = 0; p < 4; p ++) {
1a000c4a:	f04f 0c00 	mov.w	ip, #0
1a000c4e:	e7f4      	b.n	1a000c3a <pll_calc_divs+0x86>
				}
			}
		}
	}
}
1a000c50:	bd70      	pop	{r4, r5, r6, pc}
1a000c52:	bf00      	nop
1a000c54:	094c5eff 	.word	0x094c5eff
1a000c58:	1312d000 	.word	0x1312d000

1a000c5c <pll_get_frac>:

static void pll_get_frac(uint32_t freq, PLL_PARAM_T *ppll)
{
1a000c5c:	b5f0      	push	{r4, r5, r6, r7, lr}
1a000c5e:	b09d      	sub	sp, #116	; 0x74
1a000c60:	4605      	mov	r5, r0
1a000c62:	460c      	mov	r4, r1
	int diff[3];
	PLL_PARAM_T pll[3] = {{0},{0},{0}};
1a000c64:	2260      	movs	r2, #96	; 0x60
1a000c66:	2100      	movs	r1, #0
1a000c68:	a801      	add	r0, sp, #4
1a000c6a:	f000 fe05 	bl	1a001878 <memset>

	/* Try direct mode */
	pll[0].ctrl |= (1 << 7);
1a000c6e:	2380      	movs	r3, #128	; 0x80
1a000c70:	9301      	str	r3, [sp, #4]
	pll[0].fin = ppll->fin;
1a000c72:	6963      	ldr	r3, [r4, #20]
1a000c74:	9306      	str	r3, [sp, #24]
	pll[0].srcin = ppll->srcin;
1a000c76:	7923      	ldrb	r3, [r4, #4]
1a000c78:	f88d 3008 	strb.w	r3, [sp, #8]
	pll_calc_divs(freq, &pll[0]);
1a000c7c:	a901      	add	r1, sp, #4
1a000c7e:	4628      	mov	r0, r5
1a000c80:	f7ff ff98 	bl	1a000bb4 <pll_calc_divs>
	if (pll[0].fout == freq) {
1a000c84:	9b07      	ldr	r3, [sp, #28]
1a000c86:	42ab      	cmp	r3, r5
1a000c88:	d02a      	beq.n	1a000ce0 <pll_get_frac+0x84>
	if (val < 0)
1a000c8a:	1aeb      	subs	r3, r5, r3
1a000c8c:	d431      	bmi.n	1a000cf2 <pll_get_frac+0x96>
		*ppll = pll[0];
		return ;
	}
	diff[0] = ABS(freq - pll[0].fout);
1a000c8e:	461e      	mov	r6, r3
1a000c90:	9319      	str	r3, [sp, #100]	; 0x64

	/* Try non-Integer mode */
	pll[2].ctrl &= ~(1 << 6);			// need to set FBSEL to 0
1a000c92:	9b11      	ldr	r3, [sp, #68]	; 0x44
1a000c94:	f023 0340 	bic.w	r3, r3, #64	; 0x40
1a000c98:	9311      	str	r3, [sp, #68]	; 0x44
	pll[2].fin = ppll->fin;
1a000c9a:	6963      	ldr	r3, [r4, #20]
1a000c9c:	9316      	str	r3, [sp, #88]	; 0x58
	pll[2].srcin = ppll->srcin;
1a000c9e:	7923      	ldrb	r3, [r4, #4]
1a000ca0:	f88d 3048 	strb.w	r3, [sp, #72]	; 0x48
	pll_calc_divs(freq, &pll[2]);
1a000ca4:	a911      	add	r1, sp, #68	; 0x44
1a000ca6:	4628      	mov	r0, r5
1a000ca8:	f7ff ff84 	bl	1a000bb4 <pll_calc_divs>
	if (pll[2].fout == freq) {
1a000cac:	9b17      	ldr	r3, [sp, #92]	; 0x5c
1a000cae:	42ab      	cmp	r3, r5
1a000cb0:	d021      	beq.n	1a000cf6 <pll_get_frac+0x9a>
	if (val < 0)
1a000cb2:	1aeb      	subs	r3, r5, r3
1a000cb4:	d427      	bmi.n	1a000d06 <pll_get_frac+0xaa>
		*ppll = pll[2];
		return ;
	}
	diff[2] = ABS(freq - pll[2].fout);
1a000cb6:	461f      	mov	r7, r3
1a000cb8:	931b      	str	r3, [sp, #108]	; 0x6c
	
	if (freq <= 110000000) {
1a000cba:	4b2b      	ldr	r3, [pc, #172]	; (1a000d68 <pll_get_frac+0x10c>)
1a000cbc:	429d      	cmp	r5, r3
1a000cbe:	d924      	bls.n	1a000d0a <pll_get_frac+0xae>
		if (pll[1].fout == freq) {
			*ppll = pll[1];
			return ;
		}
	}
	diff[1] = ABS(freq - pll[1].fout);
1a000cc0:	9b0f      	ldr	r3, [sp, #60]	; 0x3c
	if (val < 0)
1a000cc2:	1aed      	subs	r5, r5, r3
1a000cc4:	d434      	bmi.n	1a000d30 <pll_get_frac+0xd4>
	diff[1] = ABS(freq - pll[1].fout);
1a000cc6:	951a      	str	r5, [sp, #104]	; 0x68

	/* Find the min of 3 and return */
	if (diff[0] <= diff[1]) {
1a000cc8:	42ae      	cmp	r6, r5
1a000cca:	dc3b      	bgt.n	1a000d44 <pll_get_frac+0xe8>
		if (diff[0] <= diff[2]) {
1a000ccc:	42be      	cmp	r6, r7
1a000cce:	dc31      	bgt.n	1a000d34 <pll_get_frac+0xd8>
			*ppll = pll[0];
1a000cd0:	ad01      	add	r5, sp, #4
1a000cd2:	cd0f      	ldmia	r5!, {r0, r1, r2, r3}
1a000cd4:	c40f      	stmia	r4!, {r0, r1, r2, r3}
1a000cd6:	e895 000f 	ldmia.w	r5, {r0, r1, r2, r3}
1a000cda:	e884 000f 	stmia.w	r4, {r0, r1, r2, r3}
1a000cde:	e006      	b.n	1a000cee <pll_get_frac+0x92>
		*ppll = pll[0];
1a000ce0:	ad01      	add	r5, sp, #4
1a000ce2:	cd0f      	ldmia	r5!, {r0, r1, r2, r3}
1a000ce4:	c40f      	stmia	r4!, {r0, r1, r2, r3}
1a000ce6:	e895 000f 	ldmia.w	r5, {r0, r1, r2, r3}
1a000cea:	e884 000f 	stmia.w	r4, {r0, r1, r2, r3}
			*ppll = pll[1];
		} else {
			*ppll = pll[2];
		}
	}
}
1a000cee:	b01d      	add	sp, #116	; 0x74
1a000cf0:	bdf0      	pop	{r4, r5, r6, r7, pc}
		return -val;
1a000cf2:	425b      	negs	r3, r3
1a000cf4:	e7cb      	b.n	1a000c8e <pll_get_frac+0x32>
		*ppll = pll[2];
1a000cf6:	ad11      	add	r5, sp, #68	; 0x44
1a000cf8:	cd0f      	ldmia	r5!, {r0, r1, r2, r3}
1a000cfa:	c40f      	stmia	r4!, {r0, r1, r2, r3}
1a000cfc:	e895 000f 	ldmia.w	r5, {r0, r1, r2, r3}
1a000d00:	e884 000f 	stmia.w	r4, {r0, r1, r2, r3}
		return ;
1a000d04:	e7f3      	b.n	1a000cee <pll_get_frac+0x92>
		return -val;
1a000d06:	425b      	negs	r3, r3
1a000d08:	e7d5      	b.n	1a000cb6 <pll_get_frac+0x5a>
		pll[1].ctrl = (1 << 6);
1a000d0a:	2340      	movs	r3, #64	; 0x40
1a000d0c:	9309      	str	r3, [sp, #36]	; 0x24
		pll[1].fin = ppll->fin;
1a000d0e:	6963      	ldr	r3, [r4, #20]
1a000d10:	930e      	str	r3, [sp, #56]	; 0x38
		pll_calc_divs(freq, &pll[1]);
1a000d12:	a909      	add	r1, sp, #36	; 0x24
1a000d14:	4628      	mov	r0, r5
1a000d16:	f7ff ff4d 	bl	1a000bb4 <pll_calc_divs>
		if (pll[1].fout == freq) {
1a000d1a:	9b0f      	ldr	r3, [sp, #60]	; 0x3c
1a000d1c:	42ab      	cmp	r3, r5
1a000d1e:	d1cf      	bne.n	1a000cc0 <pll_get_frac+0x64>
			*ppll = pll[1];
1a000d20:	ad09      	add	r5, sp, #36	; 0x24
1a000d22:	cd0f      	ldmia	r5!, {r0, r1, r2, r3}
1a000d24:	c40f      	stmia	r4!, {r0, r1, r2, r3}
1a000d26:	e895 000f 	ldmia.w	r5, {r0, r1, r2, r3}
1a000d2a:	e884 000f 	stmia.w	r4, {r0, r1, r2, r3}
			return ;
1a000d2e:	e7de      	b.n	1a000cee <pll_get_frac+0x92>
		return -val;
1a000d30:	426d      	negs	r5, r5
1a000d32:	e7c8      	b.n	1a000cc6 <pll_get_frac+0x6a>
			*ppll = pll[2];
1a000d34:	ad11      	add	r5, sp, #68	; 0x44
1a000d36:	cd0f      	ldmia	r5!, {r0, r1, r2, r3}
1a000d38:	c40f      	stmia	r4!, {r0, r1, r2, r3}
1a000d3a:	e895 000f 	ldmia.w	r5, {r0, r1, r2, r3}
1a000d3e:	e884 000f 	stmia.w	r4, {r0, r1, r2, r3}
1a000d42:	e7d4      	b.n	1a000cee <pll_get_frac+0x92>
		if (diff[1] <= diff[2]) {
1a000d44:	42af      	cmp	r7, r5
1a000d46:	db07      	blt.n	1a000d58 <pll_get_frac+0xfc>
			*ppll = pll[1];
1a000d48:	ad09      	add	r5, sp, #36	; 0x24
1a000d4a:	cd0f      	ldmia	r5!, {r0, r1, r2, r3}
1a000d4c:	c40f      	stmia	r4!, {r0, r1, r2, r3}
1a000d4e:	e895 000f 	ldmia.w	r5, {r0, r1, r2, r3}
1a000d52:	e884 000f 	stmia.w	r4, {r0, r1, r2, r3}
1a000d56:	e7ca      	b.n	1a000cee <pll_get_frac+0x92>
			*ppll = pll[2];
1a000d58:	ad11      	add	r5, sp, #68	; 0x44
1a000d5a:	cd0f      	ldmia	r5!, {r0, r1, r2, r3}
1a000d5c:	c40f      	stmia	r4!, {r0, r1, r2, r3}
1a000d5e:	e895 000f 	ldmia.w	r5, {r0, r1, r2, r3}
1a000d62:	e884 000f 	stmia.w	r4, {r0, r1, r2, r3}
1a000d66:	e7c2      	b.n	1a000cee <pll_get_frac+0x92>
1a000d68:	068e7780 	.word	0x068e7780

1a000d6c <Chip_Clock_FindBaseClock>:
	return Chip_Clock_GetClockInputHz(input) / (div + 1);
}

/* Finds the base clock for the peripheral clock */
static CHIP_CGU_BASE_CLK_T Chip_Clock_FindBaseClock(CHIP_CCU_CLK_T clk)
{
1a000d6c:	4684      	mov	ip, r0
	CHIP_CGU_BASE_CLK_T baseclk = CLK_BASE_NONE;
	int i = 0;
1a000d6e:	2300      	movs	r3, #0
	CHIP_CGU_BASE_CLK_T baseclk = CLK_BASE_NONE;
1a000d70:	201c      	movs	r0, #28

	while ((baseclk == CLK_BASE_NONE) && (periph_to_base[i].clkbase != baseclk)) {
1a000d72:	281c      	cmp	r0, #28
1a000d74:	d120      	bne.n	1a000db8 <Chip_Clock_FindBaseClock+0x4c>
{
1a000d76:	b410      	push	{r4}
1a000d78:	e002      	b.n	1a000d80 <Chip_Clock_FindBaseClock+0x14>
		if ((clk >= periph_to_base[i].clkstart) && (clk <= periph_to_base[i].clkend)) {
			baseclk = periph_to_base[i].clkbase;
		}
		else {
			i++;
1a000d7a:	3301      	adds	r3, #1
	while ((baseclk == CLK_BASE_NONE) && (periph_to_base[i].clkbase != baseclk)) {
1a000d7c:	281c      	cmp	r0, #28
1a000d7e:	d118      	bne.n	1a000db2 <Chip_Clock_FindBaseClock+0x46>
1a000d80:	eb03 0143 	add.w	r1, r3, r3, lsl #1
1a000d84:	4a0d      	ldr	r2, [pc, #52]	; (1a000dbc <Chip_Clock_FindBaseClock+0x50>)
1a000d86:	eb02 0241 	add.w	r2, r2, r1, lsl #1
1a000d8a:	7911      	ldrb	r1, [r2, #4]
1a000d8c:	4281      	cmp	r1, r0
1a000d8e:	d010      	beq.n	1a000db2 <Chip_Clock_FindBaseClock+0x46>
		if ((clk >= periph_to_base[i].clkstart) && (clk <= periph_to_base[i].clkend)) {
1a000d90:	eb03 0243 	add.w	r2, r3, r3, lsl #1
1a000d94:	4c09      	ldr	r4, [pc, #36]	; (1a000dbc <Chip_Clock_FindBaseClock+0x50>)
1a000d96:	f834 2012 	ldrh.w	r2, [r4, r2, lsl #1]
1a000d9a:	4562      	cmp	r2, ip
1a000d9c:	d8ed      	bhi.n	1a000d7a <Chip_Clock_FindBaseClock+0xe>
1a000d9e:	eb03 0443 	add.w	r4, r3, r3, lsl #1
1a000da2:	4a06      	ldr	r2, [pc, #24]	; (1a000dbc <Chip_Clock_FindBaseClock+0x50>)
1a000da4:	eb02 0244 	add.w	r2, r2, r4, lsl #1
1a000da8:	8852      	ldrh	r2, [r2, #2]
1a000daa:	4562      	cmp	r2, ip
1a000dac:	d3e5      	bcc.n	1a000d7a <Chip_Clock_FindBaseClock+0xe>
			baseclk = periph_to_base[i].clkbase;
1a000dae:	4608      	mov	r0, r1
1a000db0:	e7e4      	b.n	1a000d7c <Chip_Clock_FindBaseClock+0x10>
		}
	}

	return baseclk;
}
1a000db2:	f85d 4b04 	ldr.w	r4, [sp], #4
1a000db6:	4770      	bx	lr
1a000db8:	4770      	bx	lr
1a000dba:	bf00      	nop
1a000dbc:	1a0027ec 	.word	0x1a0027ec

1a000dc0 <Chip_Clock_EnableCrystal>:
 * Public functions
 ****************************************************************************/

/* Enables the crystal oscillator */
void Chip_Clock_EnableCrystal(void)
{
1a000dc0:	b082      	sub	sp, #8
	volatile uint32_t delay = 1000;
1a000dc2:	f44f 737a 	mov.w	r3, #1000	; 0x3e8
1a000dc6:	9301      	str	r3, [sp, #4]

	uint32_t OldCrystalConfig = LPC_CGU->XTAL_OSC_CTRL;
1a000dc8:	4a0d      	ldr	r2, [pc, #52]	; (1a000e00 <Chip_Clock_EnableCrystal+0x40>)
1a000dca:	6993      	ldr	r3, [r2, #24]

	/* Clear bypass mode */
	OldCrystalConfig &= (~2);
1a000dcc:	f023 0102 	bic.w	r1, r3, #2
	if (OldCrystalConfig != LPC_CGU->XTAL_OSC_CTRL) {
1a000dd0:	6992      	ldr	r2, [r2, #24]
1a000dd2:	428a      	cmp	r2, r1
1a000dd4:	d001      	beq.n	1a000dda <Chip_Clock_EnableCrystal+0x1a>
		LPC_CGU->XTAL_OSC_CTRL = OldCrystalConfig;
1a000dd6:	4a0a      	ldr	r2, [pc, #40]	; (1a000e00 <Chip_Clock_EnableCrystal+0x40>)
1a000dd8:	6191      	str	r1, [r2, #24]
	}

	/* Enable crystal oscillator */
	OldCrystalConfig &= (~1);
1a000dda:	f023 0303 	bic.w	r3, r3, #3
	if (OscRateIn >= 20000000) {
1a000dde:	4a09      	ldr	r2, [pc, #36]	; (1a000e04 <Chip_Clock_EnableCrystal+0x44>)
1a000de0:	6811      	ldr	r1, [r2, #0]
1a000de2:	4a09      	ldr	r2, [pc, #36]	; (1a000e08 <Chip_Clock_EnableCrystal+0x48>)
1a000de4:	4291      	cmp	r1, r2
1a000de6:	d901      	bls.n	1a000dec <Chip_Clock_EnableCrystal+0x2c>
		OldCrystalConfig |= 4;	/* Set high frequency mode */
1a000de8:	f043 0304 	orr.w	r3, r3, #4

	}
	LPC_CGU->XTAL_OSC_CTRL = OldCrystalConfig;
1a000dec:	4a04      	ldr	r2, [pc, #16]	; (1a000e00 <Chip_Clock_EnableCrystal+0x40>)
1a000dee:	6193      	str	r3, [r2, #24]

	/* Delay for 250uSec */
	while(delay--) {}
1a000df0:	9b01      	ldr	r3, [sp, #4]
1a000df2:	1e5a      	subs	r2, r3, #1
1a000df4:	9201      	str	r2, [sp, #4]
1a000df6:	2b00      	cmp	r3, #0
1a000df8:	d1fa      	bne.n	1a000df0 <Chip_Clock_EnableCrystal+0x30>
}
1a000dfa:	b002      	add	sp, #8
1a000dfc:	4770      	bx	lr
1a000dfe:	bf00      	nop
1a000e00:	40050000 	.word	0x40050000
1a000e04:	1a002768 	.word	0x1a002768
1a000e08:	01312cff 	.word	0x01312cff

1a000e0c <Chip_Clock_GetDividerSource>:
}

/* Gets a CGU clock divider source */
CHIP_CGU_CLKIN_T Chip_Clock_GetDividerSource(CHIP_CGU_IDIV_T Divider)
{
	uint32_t reg = LPC_CGU->IDIV_CTRL[Divider];
1a000e0c:	3012      	adds	r0, #18
1a000e0e:	4b05      	ldr	r3, [pc, #20]	; (1a000e24 <Chip_Clock_GetDividerSource+0x18>)
1a000e10:	f853 0020 	ldr.w	r0, [r3, r0, lsl #2]

	if (reg & 1) {	/* divider is powered down */
1a000e14:	f010 0f01 	tst.w	r0, #1
1a000e18:	d102      	bne.n	1a000e20 <Chip_Clock_GetDividerSource+0x14>
		return CLKINPUT_PD;
	}

	return (CHIP_CGU_CLKIN_T) ((reg >> 24) & 0x1F);
1a000e1a:	f3c0 6004 	ubfx	r0, r0, #24, #5
1a000e1e:	4770      	bx	lr
		return CLKINPUT_PD;
1a000e20:	2011      	movs	r0, #17
}
1a000e22:	4770      	bx	lr
1a000e24:	40050000 	.word	0x40050000

1a000e28 <Chip_Clock_GetDividerDivisor>:

/* Gets a CGU clock divider divisor */
uint32_t Chip_Clock_GetDividerDivisor(CHIP_CGU_IDIV_T Divider)
{
	return (CHIP_CGU_CLKIN_T) ((LPC_CGU->IDIV_CTRL[Divider] >> 2) & CHIP_CGU_IDIV_MASK(Divider));
1a000e28:	f100 0212 	add.w	r2, r0, #18
1a000e2c:	4b03      	ldr	r3, [pc, #12]	; (1a000e3c <Chip_Clock_GetDividerDivisor+0x14>)
1a000e2e:	f853 2022 	ldr.w	r2, [r3, r2, lsl #2]
1a000e32:	4b03      	ldr	r3, [pc, #12]	; (1a000e40 <Chip_Clock_GetDividerDivisor+0x18>)
1a000e34:	5c18      	ldrb	r0, [r3, r0]
}
1a000e36:	ea00 0092 	and.w	r0, r0, r2, lsr #2
1a000e3a:	4770      	bx	lr
1a000e3c:	40050000 	.word	0x40050000
1a000e40:	1a0027e4 	.word	0x1a0027e4

1a000e44 <Chip_Clock_GetClockInputHz>:

/* Returns the frequency of the specified input clock source */
uint32_t Chip_Clock_GetClockInputHz(CHIP_CGU_CLKIN_T input)
{
1a000e44:	b508      	push	{r3, lr}
	uint32_t rate = 0;

	switch (input) {
1a000e46:	2810      	cmp	r0, #16
1a000e48:	d80a      	bhi.n	1a000e60 <Chip_Clock_GetClockInputHz+0x1c>
1a000e4a:	e8df f000 	tbb	[pc, r0]
1a000e4e:	0b44      	.short	0x0b44
1a000e50:	0921180d 	.word	0x0921180d
1a000e54:	2d2a2724 	.word	0x2d2a2724
1a000e58:	34300909 	.word	0x34300909
1a000e5c:	3c38      	.short	0x3c38
1a000e5e:	40          	.byte	0x40
1a000e5f:	00          	.byte	0x00
1a000e60:	2000      	movs	r0, #0
	default:
		break;
	}

	return rate;
}
1a000e62:	bd08      	pop	{r3, pc}
		rate = CGU_IRC_FREQ;
1a000e64:	481e      	ldr	r0, [pc, #120]	; (1a000ee0 <Chip_Clock_GetClockInputHz+0x9c>)
		break;
1a000e66:	e7fc      	b.n	1a000e62 <Chip_Clock_GetClockInputHz+0x1e>
		if ((LPC_CREG->CREG6 & 0x07) != 0x4) {
1a000e68:	4b1e      	ldr	r3, [pc, #120]	; (1a000ee4 <Chip_Clock_GetClockInputHz+0xa0>)
1a000e6a:	f8d3 312c 	ldr.w	r3, [r3, #300]	; 0x12c
1a000e6e:	f003 0307 	and.w	r3, r3, #7
1a000e72:	2b04      	cmp	r3, #4
1a000e74:	d001      	beq.n	1a000e7a <Chip_Clock_GetClockInputHz+0x36>
			rate = 25000000;
1a000e76:	481c      	ldr	r0, [pc, #112]	; (1a000ee8 <Chip_Clock_GetClockInputHz+0xa4>)
1a000e78:	e7f3      	b.n	1a000e62 <Chip_Clock_GetClockInputHz+0x1e>
	uint32_t rate = 0;
1a000e7a:	2000      	movs	r0, #0
1a000e7c:	e7f1      	b.n	1a000e62 <Chip_Clock_GetClockInputHz+0x1e>
		if ((LPC_CREG->CREG6 & 0x07) != 0x4) {
1a000e7e:	4b19      	ldr	r3, [pc, #100]	; (1a000ee4 <Chip_Clock_GetClockInputHz+0xa0>)
1a000e80:	f8d3 312c 	ldr.w	r3, [r3, #300]	; 0x12c
1a000e84:	f003 0307 	and.w	r3, r3, #7
1a000e88:	2b04      	cmp	r3, #4
1a000e8a:	d027      	beq.n	1a000edc <Chip_Clock_GetClockInputHz+0x98>
			rate = 25000000; /* MII uses 25 MHz */
1a000e8c:	4816      	ldr	r0, [pc, #88]	; (1a000ee8 <Chip_Clock_GetClockInputHz+0xa4>)
1a000e8e:	e7e8      	b.n	1a000e62 <Chip_Clock_GetClockInputHz+0x1e>
		rate = ExtRateIn;
1a000e90:	4b16      	ldr	r3, [pc, #88]	; (1a000eec <Chip_Clock_GetClockInputHz+0xa8>)
1a000e92:	6818      	ldr	r0, [r3, #0]
		break;
1a000e94:	e7e5      	b.n	1a000e62 <Chip_Clock_GetClockInputHz+0x1e>
		rate = OscRateIn;
1a000e96:	4b16      	ldr	r3, [pc, #88]	; (1a000ef0 <Chip_Clock_GetClockInputHz+0xac>)
1a000e98:	6818      	ldr	r0, [r3, #0]
		break;
1a000e9a:	e7e2      	b.n	1a000e62 <Chip_Clock_GetClockInputHz+0x1e>
		rate = audio_usb_pll_freq[CGU_USB_PLL];
1a000e9c:	4b15      	ldr	r3, [pc, #84]	; (1a000ef4 <Chip_Clock_GetClockInputHz+0xb0>)
1a000e9e:	6818      	ldr	r0, [r3, #0]
		break;
1a000ea0:	e7df      	b.n	1a000e62 <Chip_Clock_GetClockInputHz+0x1e>
		rate = audio_usb_pll_freq[CGU_AUDIO_PLL];
1a000ea2:	4b14      	ldr	r3, [pc, #80]	; (1a000ef4 <Chip_Clock_GetClockInputHz+0xb0>)
1a000ea4:	6858      	ldr	r0, [r3, #4]
		break;
1a000ea6:	e7dc      	b.n	1a000e62 <Chip_Clock_GetClockInputHz+0x1e>
		rate = Chip_Clock_GetMainPLLHz();
1a000ea8:	f000 f868 	bl	1a000f7c <Chip_Clock_GetMainPLLHz>
		break;
1a000eac:	e7d9      	b.n	1a000e62 <Chip_Clock_GetClockInputHz+0x1e>
		rate = Chip_Clock_GetDivRate(input, CLK_IDIV_A);
1a000eae:	2100      	movs	r1, #0
1a000eb0:	f000 f898 	bl	1a000fe4 <Chip_Clock_GetDivRate>
		break;
1a000eb4:	e7d5      	b.n	1a000e62 <Chip_Clock_GetClockInputHz+0x1e>
		rate = Chip_Clock_GetDivRate(input, CLK_IDIV_B);
1a000eb6:	2101      	movs	r1, #1
1a000eb8:	f000 f894 	bl	1a000fe4 <Chip_Clock_GetDivRate>
		break;
1a000ebc:	e7d1      	b.n	1a000e62 <Chip_Clock_GetClockInputHz+0x1e>
		rate = Chip_Clock_GetDivRate(input, CLK_IDIV_C);
1a000ebe:	2102      	movs	r1, #2
1a000ec0:	f000 f890 	bl	1a000fe4 <Chip_Clock_GetDivRate>
		break;
1a000ec4:	e7cd      	b.n	1a000e62 <Chip_Clock_GetClockInputHz+0x1e>
		rate = Chip_Clock_GetDivRate(input, CLK_IDIV_D);
1a000ec6:	2103      	movs	r1, #3
1a000ec8:	f000 f88c 	bl	1a000fe4 <Chip_Clock_GetDivRate>
		break;
1a000ecc:	e7c9      	b.n	1a000e62 <Chip_Clock_GetClockInputHz+0x1e>
		rate = Chip_Clock_GetDivRate(input, CLK_IDIV_E);
1a000ece:	2104      	movs	r1, #4
1a000ed0:	f000 f888 	bl	1a000fe4 <Chip_Clock_GetDivRate>
		break;
1a000ed4:	e7c5      	b.n	1a000e62 <Chip_Clock_GetClockInputHz+0x1e>
		rate = CRYSTAL_32K_FREQ_IN;
1a000ed6:	f44f 4000 	mov.w	r0, #32768	; 0x8000
1a000eda:	e7c2      	b.n	1a000e62 <Chip_Clock_GetClockInputHz+0x1e>
			rate = 50000000; /* RMII uses 50 MHz */
1a000edc:	4806      	ldr	r0, [pc, #24]	; (1a000ef8 <Chip_Clock_GetClockInputHz+0xb4>)
	return rate;
1a000ede:	e7c0      	b.n	1a000e62 <Chip_Clock_GetClockInputHz+0x1e>
1a000ee0:	00b71b00 	.word	0x00b71b00
1a000ee4:	40043000 	.word	0x40043000
1a000ee8:	017d7840 	.word	0x017d7840
1a000eec:	1a00273c 	.word	0x1a00273c
1a000ef0:	1a002768 	.word	0x1a002768
1a000ef4:	100000ac 	.word	0x100000ac
1a000ef8:	02faf080 	.word	0x02faf080

1a000efc <Chip_Clock_CalcMainPLLValue>:
{
1a000efc:	b538      	push	{r3, r4, r5, lr}
1a000efe:	4605      	mov	r5, r0
1a000f00:	460c      	mov	r4, r1
	ppll->fin = Chip_Clock_GetClockInputHz(ppll->srcin);
1a000f02:	7908      	ldrb	r0, [r1, #4]
1a000f04:	f7ff ff9e 	bl	1a000e44 <Chip_Clock_GetClockInputHz>
1a000f08:	6160      	str	r0, [r4, #20]
	if (freq > MAX_CLOCK_FREQ || freq < (PLL_MIN_CCO_FREQ / 16) || !ppll->fin) {
1a000f0a:	4b19      	ldr	r3, [pc, #100]	; (1a000f70 <Chip_Clock_CalcMainPLLValue+0x74>)
1a000f0c:	442b      	add	r3, r5
1a000f0e:	4a19      	ldr	r2, [pc, #100]	; (1a000f74 <Chip_Clock_CalcMainPLLValue+0x78>)
1a000f10:	4293      	cmp	r3, r2
1a000f12:	d821      	bhi.n	1a000f58 <Chip_Clock_CalcMainPLLValue+0x5c>
1a000f14:	b318      	cbz	r0, 1a000f5e <Chip_Clock_CalcMainPLLValue+0x62>
	ppll->ctrl = 1 << 7; /* Enable direct mode [If possible] */
1a000f16:	2380      	movs	r3, #128	; 0x80
1a000f18:	6023      	str	r3, [r4, #0]
	ppll->nsel = 0;
1a000f1a:	2300      	movs	r3, #0
1a000f1c:	60a3      	str	r3, [r4, #8]
	ppll->psel = 0;
1a000f1e:	60e3      	str	r3, [r4, #12]
	ppll->msel = freq / ppll->fin;
1a000f20:	fbb5 f3f0 	udiv	r3, r5, r0
1a000f24:	6123      	str	r3, [r4, #16]
	if (freq < PLL_MIN_CCO_FREQ || ppll->msel * ppll->fin != freq) {
1a000f26:	4a14      	ldr	r2, [pc, #80]	; (1a000f78 <Chip_Clock_CalcMainPLLValue+0x7c>)
1a000f28:	4295      	cmp	r5, r2
1a000f2a:	d903      	bls.n	1a000f34 <Chip_Clock_CalcMainPLLValue+0x38>
1a000f2c:	fb00 f303 	mul.w	r3, r0, r3
1a000f30:	42ab      	cmp	r3, r5
1a000f32:	d007      	beq.n	1a000f44 <Chip_Clock_CalcMainPLLValue+0x48>
		pll_get_frac(freq, ppll);
1a000f34:	4621      	mov	r1, r4
1a000f36:	4628      	mov	r0, r5
1a000f38:	f7ff fe90 	bl	1a000c5c <pll_get_frac>
		if (!ppll->nsel) {
1a000f3c:	68a3      	ldr	r3, [r4, #8]
1a000f3e:	b18b      	cbz	r3, 1a000f64 <Chip_Clock_CalcMainPLLValue+0x68>
		ppll->nsel --;
1a000f40:	3b01      	subs	r3, #1
1a000f42:	60a3      	str	r3, [r4, #8]
	if (ppll->msel == 0) {
1a000f44:	6923      	ldr	r3, [r4, #16]
1a000f46:	b183      	cbz	r3, 1a000f6a <Chip_Clock_CalcMainPLLValue+0x6e>
	if (ppll->psel) {
1a000f48:	68e2      	ldr	r2, [r4, #12]
1a000f4a:	b10a      	cbz	r2, 1a000f50 <Chip_Clock_CalcMainPLLValue+0x54>
		ppll->psel --;
1a000f4c:	3a01      	subs	r2, #1
1a000f4e:	60e2      	str	r2, [r4, #12]
	ppll->msel --;
1a000f50:	3b01      	subs	r3, #1
1a000f52:	6123      	str	r3, [r4, #16]
	return 0;
1a000f54:	2000      	movs	r0, #0
}
1a000f56:	bd38      	pop	{r3, r4, r5, pc}
		return -1;
1a000f58:	f04f 30ff 	mov.w	r0, #4294967295	; 0xffffffff
1a000f5c:	e7fb      	b.n	1a000f56 <Chip_Clock_CalcMainPLLValue+0x5a>
1a000f5e:	f04f 30ff 	mov.w	r0, #4294967295	; 0xffffffff
1a000f62:	e7f8      	b.n	1a000f56 <Chip_Clock_CalcMainPLLValue+0x5a>
			return -1;
1a000f64:	f04f 30ff 	mov.w	r0, #4294967295	; 0xffffffff
1a000f68:	e7f5      	b.n	1a000f56 <Chip_Clock_CalcMainPLLValue+0x5a>
		return - 1;
1a000f6a:	f04f 30ff 	mov.w	r0, #4294967295	; 0xffffffff
1a000f6e:	e7f2      	b.n	1a000f56 <Chip_Clock_CalcMainPLLValue+0x5a>
1a000f70:	ff6b3a10 	.word	0xff6b3a10
1a000f74:	0b940510 	.word	0x0b940510
1a000f78:	094c5eff 	.word	0x094c5eff

1a000f7c <Chip_Clock_GetMainPLLHz>:
{
1a000f7c:	b530      	push	{r4, r5, lr}
1a000f7e:	b083      	sub	sp, #12
	uint32_t PLLReg = LPC_CGU->PLL1_CTRL;
1a000f80:	4d16      	ldr	r5, [pc, #88]	; (1a000fdc <Chip_Clock_GetMainPLLHz+0x60>)
1a000f82:	6c6c      	ldr	r4, [r5, #68]	; 0x44
	uint32_t freq = Chip_Clock_GetClockInputHz((CHIP_CGU_CLKIN_T) ((PLLReg >> 24) & 0xF));
1a000f84:	f3c4 6003 	ubfx	r0, r4, #24, #4
1a000f88:	f7ff ff5c 	bl	1a000e44 <Chip_Clock_GetClockInputHz>
1a000f8c:	4684      	mov	ip, r0
	const uint8_t ptab[] = {1, 2, 4, 8};
1a000f8e:	4b14      	ldr	r3, [pc, #80]	; (1a000fe0 <Chip_Clock_GetMainPLLHz+0x64>)
1a000f90:	9301      	str	r3, [sp, #4]
	if (!(LPC_CGU->PLL1_STAT & 1)) {
1a000f92:	6c28      	ldr	r0, [r5, #64]	; 0x40
1a000f94:	f010 0001 	ands.w	r0, r0, #1
1a000f98:	d01d      	beq.n	1a000fd6 <Chip_Clock_GetMainPLLHz+0x5a>
	msel = (PLLReg >> 16) & 0xFF;
1a000f9a:	f3c4 4207 	ubfx	r2, r4, #16, #8
	nsel = (PLLReg >> 12) & 0x3;
1a000f9e:	f3c4 3301 	ubfx	r3, r4, #12, #2
	psel = (PLLReg >> 8) & 0x3;
1a000fa2:	f3c4 2101 	ubfx	r1, r4, #8, #2
	fbsel = (PLLReg >> 6) & 0x1;
1a000fa6:	f3c4 1080 	ubfx	r0, r4, #6, #1
	m = msel + 1;
1a000faa:	3201      	adds	r2, #1
	n = nsel + 1;
1a000fac:	3301      	adds	r3, #1
	p = ptab[psel];
1a000fae:	3108      	adds	r1, #8
1a000fb0:	4469      	add	r1, sp
1a000fb2:	f811 1c04 	ldrb.w	r1, [r1, #-4]
	if (direct || fbsel) {
1a000fb6:	f014 0f80 	tst.w	r4, #128	; 0x80
1a000fba:	d108      	bne.n	1a000fce <Chip_Clock_GetMainPLLHz+0x52>
1a000fbc:	b938      	cbnz	r0, 1a000fce <Chip_Clock_GetMainPLLHz+0x52>
	return (m / (2 * p)) * (freq / n);
1a000fbe:	0049      	lsls	r1, r1, #1
1a000fc0:	fbb2 f2f1 	udiv	r2, r2, r1
1a000fc4:	fbbc f0f3 	udiv	r0, ip, r3
1a000fc8:	fb02 f000 	mul.w	r0, r2, r0
1a000fcc:	e003      	b.n	1a000fd6 <Chip_Clock_GetMainPLLHz+0x5a>
		return m * (freq / n);
1a000fce:	fbbc f3f3 	udiv	r3, ip, r3
1a000fd2:	fb02 f003 	mul.w	r0, r2, r3
}
1a000fd6:	b003      	add	sp, #12
1a000fd8:	bd30      	pop	{r4, r5, pc}
1a000fda:	bf00      	nop
1a000fdc:	40050000 	.word	0x40050000
1a000fe0:	08040201 	.word	0x08040201

1a000fe4 <Chip_Clock_GetDivRate>:
{
1a000fe4:	b538      	push	{r3, r4, r5, lr}
1a000fe6:	460c      	mov	r4, r1
	input = Chip_Clock_GetDividerSource(divider);
1a000fe8:	4608      	mov	r0, r1
1a000fea:	f7ff ff0f 	bl	1a000e0c <Chip_Clock_GetDividerSource>
1a000fee:	4605      	mov	r5, r0
	div = Chip_Clock_GetDividerDivisor(divider);
1a000ff0:	4620      	mov	r0, r4
1a000ff2:	f7ff ff19 	bl	1a000e28 <Chip_Clock_GetDividerDivisor>
1a000ff6:	4604      	mov	r4, r0
	return Chip_Clock_GetClockInputHz(input) / (div + 1);
1a000ff8:	4628      	mov	r0, r5
1a000ffa:	f7ff ff23 	bl	1a000e44 <Chip_Clock_GetClockInputHz>
1a000ffe:	3401      	adds	r4, #1
}
1a001000:	fbb0 f0f4 	udiv	r0, r0, r4
1a001004:	bd38      	pop	{r3, r4, r5, pc}
	...

1a001008 <Chip_Clock_SetBaseClock>:
	return Chip_Clock_GetClockInputHz(Chip_Clock_GetBaseClock(clock));
}

/* Sets a CGU Base Clock clock source */
void Chip_Clock_SetBaseClock(CHIP_CGU_BASE_CLK_T BaseClock, CHIP_CGU_CLKIN_T Input, bool autoblocken, bool powerdn)
{
1a001008:	b430      	push	{r4, r5}
	uint32_t reg = LPC_CGU->BASE_CLK[BaseClock];
1a00100a:	f100 0c16 	add.w	ip, r0, #22
1a00100e:	ea4f 0c8c 	mov.w	ip, ip, lsl #2
1a001012:	f10c 4c80 	add.w	ip, ip, #1073741824	; 0x40000000
1a001016:	f50c 2ca0 	add.w	ip, ip, #327680	; 0x50000
1a00101a:	f8dc 4004 	ldr.w	r4, [ip, #4]

	if (BaseClock < CLK_BASE_NONE) {
1a00101e:	281b      	cmp	r0, #27
1a001020:	d813      	bhi.n	1a00104a <Chip_Clock_SetBaseClock+0x42>
		if (Input != CLKINPUT_PD) {
1a001022:	2911      	cmp	r1, #17
1a001024:	d01a      	beq.n	1a00105c <Chip_Clock_SetBaseClock+0x54>
			/* Mask off fields we plan to update */
			reg &= ~((0x1F << 24) | 1 | (1 << 11));
1a001026:	4d0e      	ldr	r5, [pc, #56]	; (1a001060 <Chip_Clock_SetBaseClock+0x58>)
1a001028:	4025      	ands	r5, r4

			if (autoblocken) {
1a00102a:	b10a      	cbz	r2, 1a001030 <Chip_Clock_SetBaseClock+0x28>
				reg |= (1 << 11);
1a00102c:	f445 6500 	orr.w	r5, r5, #2048	; 0x800
			}
			if (powerdn) {
1a001030:	b10b      	cbz	r3, 1a001036 <Chip_Clock_SetBaseClock+0x2e>
				reg |= (1 << 0);
1a001032:	f045 0501 	orr.w	r5, r5, #1
			}

			/* Set clock source */
			reg |= (Input << 24);
1a001036:	ea45 6501 	orr.w	r5, r5, r1, lsl #24

			LPC_CGU->BASE_CLK[BaseClock] = reg;
1a00103a:	3016      	adds	r0, #22
1a00103c:	0080      	lsls	r0, r0, #2
1a00103e:	f100 4080 	add.w	r0, r0, #1073741824	; 0x40000000
1a001042:	f500 20a0 	add.w	r0, r0, #327680	; 0x50000
1a001046:	6045      	str	r5, [r0, #4]
1a001048:	e008      	b.n	1a00105c <Chip_Clock_SetBaseClock+0x54>
		}
	}
	else {
		LPC_CGU->BASE_CLK[BaseClock] = reg | 1;	/* Power down this base clock */
1a00104a:	f044 0401 	orr.w	r4, r4, #1
1a00104e:	3016      	adds	r0, #22
1a001050:	0080      	lsls	r0, r0, #2
1a001052:	f100 4080 	add.w	r0, r0, #1073741824	; 0x40000000
1a001056:	f500 20a0 	add.w	r0, r0, #327680	; 0x50000
1a00105a:	6044      	str	r4, [r0, #4]
	}
}
1a00105c:	bc30      	pop	{r4, r5}
1a00105e:	4770      	bx	lr
1a001060:	e0fff7fe 	.word	0xe0fff7fe

1a001064 <Chip_Clock_GetBaseClock>:
/* Gets a CGU Base Clock clock source */
CHIP_CGU_CLKIN_T Chip_Clock_GetBaseClock(CHIP_CGU_BASE_CLK_T BaseClock)
{
	uint32_t reg;

	if (BaseClock >= CLK_BASE_NONE) {
1a001064:	281b      	cmp	r0, #27
1a001066:	d80d      	bhi.n	1a001084 <Chip_Clock_GetBaseClock+0x20>
		return CLKINPUT_PD;
	}

	reg = LPC_CGU->BASE_CLK[BaseClock];
1a001068:	f100 0316 	add.w	r3, r0, #22
1a00106c:	009b      	lsls	r3, r3, #2
1a00106e:	f103 4380 	add.w	r3, r3, #1073741824	; 0x40000000
1a001072:	f503 23a0 	add.w	r3, r3, #327680	; 0x50000
1a001076:	6858      	ldr	r0, [r3, #4]

	/* base clock is powered down? */
	if (reg & 1) {
1a001078:	f010 0f01 	tst.w	r0, #1
1a00107c:	d104      	bne.n	1a001088 <Chip_Clock_GetBaseClock+0x24>
		return CLKINPUT_PD;
	}

	return (CHIP_CGU_CLKIN_T) ((reg >> 24) & 0x1F);
1a00107e:	f3c0 6004 	ubfx	r0, r0, #24, #5
1a001082:	4770      	bx	lr
		return CLKINPUT_PD;
1a001084:	2011      	movs	r0, #17
1a001086:	4770      	bx	lr
		return CLKINPUT_PD;
1a001088:	2011      	movs	r0, #17
}
1a00108a:	4770      	bx	lr

1a00108c <Chip_Clock_GetBaseClocktHz>:
{
1a00108c:	b508      	push	{r3, lr}
	return Chip_Clock_GetClockInputHz(Chip_Clock_GetBaseClock(clock));
1a00108e:	f7ff ffe9 	bl	1a001064 <Chip_Clock_GetBaseClock>
1a001092:	f7ff fed7 	bl	1a000e44 <Chip_Clock_GetClockInputHz>
}
1a001096:	bd08      	pop	{r3, pc}

1a001098 <Chip_Clock_EnableOpts>:
/* Enables a peripheral clock and sets clock states */
void Chip_Clock_EnableOpts(CHIP_CCU_CLK_T clk, bool autoen, bool wakeupen, int div)
{
	uint32_t reg = 1;

	if (autoen) {
1a001098:	b971      	cbnz	r1, 1a0010b8 <Chip_Clock_EnableOpts+0x20>
	uint32_t reg = 1;
1a00109a:	2101      	movs	r1, #1
		reg |= (1 << 1);
	}
	if (wakeupen) {
1a00109c:	b10a      	cbz	r2, 1a0010a2 <Chip_Clock_EnableOpts+0xa>
		reg |= (1 << 2);
1a00109e:	f041 0104 	orr.w	r1, r1, #4
	}

	/* Not all clocks support a divider, but we won't check that here. Only
	   dividers of 1 and 2 are allowed. Assume 1 if not 2 */
	if (div == 2) {
1a0010a2:	2b02      	cmp	r3, #2
1a0010a4:	d00a      	beq.n	1a0010bc <Chip_Clock_EnableOpts+0x24>
		reg |= (1 << 5);
	}

	/* Setup peripheral clock and start running */
	if (clk >= CLK_CCU2_START) {
1a0010a6:	f5b0 7fa1 	cmp.w	r0, #322	; 0x142
1a0010aa:	d30a      	bcc.n	1a0010c2 <Chip_Clock_EnableOpts+0x2a>
		LPC_CCU2->CLKCCU[clk - CLK_CCU2_START].CFG = reg;
1a0010ac:	f5a0 7091 	sub.w	r0, r0, #290	; 0x122
1a0010b0:	4b06      	ldr	r3, [pc, #24]	; (1a0010cc <Chip_Clock_EnableOpts+0x34>)
1a0010b2:	f843 1030 	str.w	r1, [r3, r0, lsl #3]
1a0010b6:	4770      	bx	lr
		reg |= (1 << 1);
1a0010b8:	2103      	movs	r1, #3
1a0010ba:	e7ef      	b.n	1a00109c <Chip_Clock_EnableOpts+0x4>
		reg |= (1 << 5);
1a0010bc:	f041 0120 	orr.w	r1, r1, #32
1a0010c0:	e7f1      	b.n	1a0010a6 <Chip_Clock_EnableOpts+0xe>
	}
	else {
		LPC_CCU1->CLKCCU[clk].CFG = reg;
1a0010c2:	3020      	adds	r0, #32
1a0010c4:	4b02      	ldr	r3, [pc, #8]	; (1a0010d0 <Chip_Clock_EnableOpts+0x38>)
1a0010c6:	f843 1030 	str.w	r1, [r3, r0, lsl #3]
	}
}
1a0010ca:	4770      	bx	lr
1a0010cc:	40052000 	.word	0x40052000
1a0010d0:	40051000 	.word	0x40051000

1a0010d4 <Chip_Clock_Enable>:

/* Enables a peripheral clock */
void Chip_Clock_Enable(CHIP_CCU_CLK_T clk)
{
	/* Start peripheral clock running */
	if (clk >= CLK_CCU2_START) {
1a0010d4:	f5b0 7fa1 	cmp.w	r0, #322	; 0x142
1a0010d8:	d309      	bcc.n	1a0010ee <Chip_Clock_Enable+0x1a>
		LPC_CCU2->CLKCCU[clk - CLK_CCU2_START].CFG |= 1;
1a0010da:	4a09      	ldr	r2, [pc, #36]	; (1a001100 <Chip_Clock_Enable+0x2c>)
1a0010dc:	f5a0 7091 	sub.w	r0, r0, #290	; 0x122
1a0010e0:	f852 3030 	ldr.w	r3, [r2, r0, lsl #3]
1a0010e4:	f043 0301 	orr.w	r3, r3, #1
1a0010e8:	f842 3030 	str.w	r3, [r2, r0, lsl #3]
1a0010ec:	4770      	bx	lr
	}
	else {
		LPC_CCU1->CLKCCU[clk].CFG |= 1;
1a0010ee:	4a05      	ldr	r2, [pc, #20]	; (1a001104 <Chip_Clock_Enable+0x30>)
1a0010f0:	3020      	adds	r0, #32
1a0010f2:	f852 3030 	ldr.w	r3, [r2, r0, lsl #3]
1a0010f6:	f043 0301 	orr.w	r3, r3, #1
1a0010fa:	f842 3030 	str.w	r3, [r2, r0, lsl #3]
	}
}
1a0010fe:	4770      	bx	lr
1a001100:	40052000 	.word	0x40052000
1a001104:	40051000 	.word	0x40051000

1a001108 <Chip_Clock_GetRate>:
	LPC_CCU2->PM = 0;
}

/* Returns a peripheral clock rate */
uint32_t Chip_Clock_GetRate(CHIP_CCU_CLK_T clk)
{
1a001108:	b510      	push	{r4, lr}
1a00110a:	4603      	mov	r3, r0
	CHIP_CGU_BASE_CLK_T baseclk;
	uint32_t reg, div, rate;

	/* Get CCU config register for clock */
	if (clk >= CLK_CCU2_START) {
1a00110c:	f5b0 7fa1 	cmp.w	r0, #322	; 0x142
1a001110:	d308      	bcc.n	1a001124 <Chip_Clock_GetRate+0x1c>
		reg = LPC_CCU2->CLKCCU[clk - CLK_CCU2_START].CFG;
1a001112:	f5a0 7291 	sub.w	r2, r0, #290	; 0x122
1a001116:	490d      	ldr	r1, [pc, #52]	; (1a00114c <Chip_Clock_GetRate+0x44>)
1a001118:	f851 4032 	ldr.w	r4, [r1, r2, lsl #3]
	else {
		reg = LPC_CCU1->CLKCCU[clk].CFG;
	}

	/* Is the clock enabled? */
	if (reg & 1) {
1a00111c:	f014 0001 	ands.w	r0, r4, #1
1a001120:	d106      	bne.n	1a001130 <Chip_Clock_GetRate+0x28>
	else {
		rate = 0;
	}

	return rate;
}
1a001122:	bd10      	pop	{r4, pc}
		reg = LPC_CCU1->CLKCCU[clk].CFG;
1a001124:	f100 0220 	add.w	r2, r0, #32
1a001128:	4909      	ldr	r1, [pc, #36]	; (1a001150 <Chip_Clock_GetRate+0x48>)
1a00112a:	f851 4032 	ldr.w	r4, [r1, r2, lsl #3]
1a00112e:	e7f5      	b.n	1a00111c <Chip_Clock_GetRate+0x14>
		baseclk = Chip_Clock_FindBaseClock(clk);
1a001130:	4618      	mov	r0, r3
1a001132:	f7ff fe1b 	bl	1a000d6c <Chip_Clock_FindBaseClock>
		rate = Chip_Clock_GetBaseClocktHz(baseclk);
1a001136:	f7ff ffa9 	bl	1a00108c <Chip_Clock_GetBaseClocktHz>
		if (((reg >> 5) & 0x7) == 0) {
1a00113a:	f014 0fe0 	tst.w	r4, #224	; 0xe0
1a00113e:	d103      	bne.n	1a001148 <Chip_Clock_GetRate+0x40>
			div = 1;
1a001140:	2301      	movs	r3, #1
		rate = rate / div;
1a001142:	fbb0 f0f3 	udiv	r0, r0, r3
	return rate;
1a001146:	e7ec      	b.n	1a001122 <Chip_Clock_GetRate+0x1a>
			div = 2;/* No other dividers supported */
1a001148:	2302      	movs	r3, #2
1a00114a:	e7fa      	b.n	1a001142 <Chip_Clock_GetRate+0x3a>
1a00114c:	40052000 	.word	0x40052000
1a001150:	40051000 	.word	0x40051000

1a001154 <Chip_GPIO_Init>:
 ****************************************************************************/

/* Initialize GPIO block */
void Chip_GPIO_Init(LPC_GPIO_T *pGPIO)
{
}
1a001154:	4770      	bx	lr
	...

1a001158 <Chip_I2C_EventHandler>:
{
	struct i2c_interface *iic = &i2c[id];
	volatile I2C_STATUS_T *stat;

	/* Only WAIT event needs to be handled */
	if (event != I2C_EVENT_WAIT) {
1a001158:	2901      	cmp	r1, #1
1a00115a:	d109      	bne.n	1a001170 <Chip_I2C_EventHandler+0x18>
		return;
	}

	stat = &iic->mXfer->status;
1a00115c:	ebc0 00c0 	rsb	r0, r0, r0, lsl #3
1a001160:	4b04      	ldr	r3, [pc, #16]	; (1a001174 <Chip_I2C_EventHandler+0x1c>)
1a001162:	eb03 0380 	add.w	r3, r3, r0, lsl #2
1a001166:	691a      	ldr	r2, [r3, #16]
	/* Wait for the status to change */
	while (*stat == I2C_STATUS_BUSY) {}
1a001168:	7d13      	ldrb	r3, [r2, #20]
1a00116a:	b2db      	uxtb	r3, r3
1a00116c:	2b04      	cmp	r3, #4
1a00116e:	d0fb      	beq.n	1a001168 <Chip_I2C_EventHandler+0x10>
}
1a001170:	4770      	bx	lr
1a001172:	bf00      	nop
1a001174:	10000000 	.word	0x10000000

1a001178 <Chip_I2C_Init>:
	}
}

/* Initializes the LPC_I2C peripheral with specified parameter */
void Chip_I2C_Init(I2C_ID_T id)
{
1a001178:	b570      	push	{r4, r5, r6, lr}
1a00117a:	4604      	mov	r4, r0
	Chip_Clock_Enable(i2c[id].clk);
1a00117c:	4e07      	ldr	r6, [pc, #28]	; (1a00119c <Chip_I2C_Init+0x24>)
1a00117e:	00c5      	lsls	r5, r0, #3
1a001180:	ebc0 03c0 	rsb	r3, r0, r0, lsl #3
1a001184:	eb06 0383 	add.w	r3, r6, r3, lsl #2
1a001188:	8898      	ldrh	r0, [r3, #4]
1a00118a:	f7ff ffa3 	bl	1a0010d4 <Chip_Clock_Enable>
	enableClk(id);

	/* Set I2C operation to default */
	LPC_I2Cx(id)->CONCLR = (I2C_CON_AA | I2C_CON_SI | I2C_CON_STA | I2C_CON_I2EN);
1a00118e:	1b2d      	subs	r5, r5, r4
1a001190:	f856 3025 	ldr.w	r3, [r6, r5, lsl #2]
1a001194:	226c      	movs	r2, #108	; 0x6c
1a001196:	619a      	str	r2, [r3, #24]
}
1a001198:	bd70      	pop	{r4, r5, r6, pc}
1a00119a:	bf00      	nop
1a00119c:	10000000 	.word	0x10000000

1a0011a0 <Chip_I2C_SetClockRate>:
	disableClk(id);
}

/* Set up clock rate for LPC_I2C peripheral */
void Chip_I2C_SetClockRate(I2C_ID_T id, uint32_t clockrate)
{
1a0011a0:	e92d 41f0 	stmdb	sp!, {r4, r5, r6, r7, r8, lr}
1a0011a4:	4604      	mov	r4, r0
1a0011a6:	4688      	mov	r8, r1
	return Chip_Clock_GetRate(i2c[id].clk);
1a0011a8:	4d0b      	ldr	r5, [pc, #44]	; (1a0011d8 <Chip_I2C_SetClockRate+0x38>)
1a0011aa:	00c6      	lsls	r6, r0, #3
1a0011ac:	ebc0 03c0 	rsb	r3, r0, r0, lsl #3
1a0011b0:	009f      	lsls	r7, r3, #2
1a0011b2:	eb05 0383 	add.w	r3, r5, r3, lsl #2
1a0011b6:	8898      	ldrh	r0, [r3, #4]
1a0011b8:	f7ff ffa6 	bl	1a001108 <Chip_Clock_GetRate>
	uint32_t SCLValue;

	SCLValue = (getClkRate(id) / clockrate);
1a0011bc:	fbb0 f1f8 	udiv	r1, r0, r8
	LPC_I2Cx(id)->SCLH = (uint32_t) (SCLValue >> 1);
1a0011c0:	59eb      	ldr	r3, [r5, r7]
1a0011c2:	084a      	lsrs	r2, r1, #1
1a0011c4:	611a      	str	r2, [r3, #16]
	LPC_I2Cx(id)->SCLL = (uint32_t) (SCLValue - LPC_I2Cx(id)->SCLH);
1a0011c6:	1b36      	subs	r6, r6, r4
1a0011c8:	f855 3026 	ldr.w	r3, [r5, r6, lsl #2]
1a0011cc:	691a      	ldr	r2, [r3, #16]
1a0011ce:	1a89      	subs	r1, r1, r2
1a0011d0:	6159      	str	r1, [r3, #20]
}
1a0011d2:	e8bd 81f0 	ldmia.w	sp!, {r4, r5, r6, r7, r8, pc}
1a0011d6:	bf00      	nop
1a0011d8:	10000000 	.word	0x10000000

1a0011dc <Chip_SSP_GetClockIndex>:
/* Returns clock index for the register interface */
STATIC CHIP_CCU_CLK_T Chip_SSP_GetClockIndex(LPC_SSP_T *pSSP)
{
	CHIP_CCU_CLK_T clkSSP;

	if (pSSP == LPC_SSP1) {
1a0011dc:	4b03      	ldr	r3, [pc, #12]	; (1a0011ec <Chip_SSP_GetClockIndex+0x10>)
1a0011de:	4298      	cmp	r0, r3
1a0011e0:	d001      	beq.n	1a0011e6 <Chip_SSP_GetClockIndex+0xa>
		clkSSP = CLK_MX_SSP1;
	}
	else {
		clkSSP = CLK_MX_SSP0;
1a0011e2:	2083      	movs	r0, #131	; 0x83
	}

	return clkSSP;
}
1a0011e4:	4770      	bx	lr
		clkSSP = CLK_MX_SSP1;
1a0011e6:	20a5      	movs	r0, #165	; 0xa5
1a0011e8:	4770      	bx	lr
1a0011ea:	bf00      	nop
1a0011ec:	400c5000 	.word	0x400c5000

1a0011f0 <Chip_SSP_GetPeriphClockIndex>:
/* Returns clock index for the peripheral block */
STATIC CHIP_CCU_CLK_T Chip_SSP_GetPeriphClockIndex(LPC_SSP_T *pSSP)
{
	CHIP_CCU_CLK_T clkSSP;

	if (pSSP == LPC_SSP1) {
1a0011f0:	4b04      	ldr	r3, [pc, #16]	; (1a001204 <Chip_SSP_GetPeriphClockIndex+0x14>)
1a0011f2:	4298      	cmp	r0, r3
1a0011f4:	d002      	beq.n	1a0011fc <Chip_SSP_GetPeriphClockIndex+0xc>
		clkSSP = CLK_APB2_SSP1;
	}
	else {
		clkSSP = CLK_APB0_SSP0;
1a0011f6:	f240 2002 	movw	r0, #514	; 0x202
	}

	return clkSSP;
}
1a0011fa:	4770      	bx	lr
		clkSSP = CLK_APB2_SSP1;
1a0011fc:	f44f 70f1 	mov.w	r0, #482	; 0x1e2
1a001200:	4770      	bx	lr
1a001202:	bf00      	nop
1a001204:	400c5000 	.word	0x400c5000

1a001208 <Chip_SSP_SetClockRate>:

/*Set up output clocks per bit for SSP bus*/
void Chip_SSP_SetClockRate(LPC_SSP_T *pSSP, uint32_t clk_rate, uint32_t prescale)
{
	uint32_t temp;
	temp = pSSP->CR0 & (~(SSP_CR0_SCR(0xFF)));
1a001208:	6803      	ldr	r3, [r0, #0]
1a00120a:	f423 437f 	bic.w	r3, r3, #65280	; 0xff00
	pSSP->CR0 = temp | (SSP_CR0_SCR(clk_rate));
1a00120e:	0209      	lsls	r1, r1, #8
1a001210:	b289      	uxth	r1, r1
1a001212:	4319      	orrs	r1, r3
1a001214:	6001      	str	r1, [r0, #0]
	pSSP->CPSR = prescale;
1a001216:	6102      	str	r2, [r0, #16]
}
1a001218:	4770      	bx	lr

1a00121a <Chip_SSP_SetBitRate>:
	}
}

/* Set the clock frequency for SSP interface */
void Chip_SSP_SetBitRate(LPC_SSP_T *pSSP, uint32_t bitRate)
{
1a00121a:	b538      	push	{r3, r4, r5, lr}
1a00121c:	4605      	mov	r5, r0
1a00121e:	460c      	mov	r4, r1
	uint32_t ssp_clk, cr0_div, cmp_clk, prescale;

	ssp_clk = Chip_Clock_GetRate(Chip_SSP_GetPeriphClockIndex(pSSP));
1a001220:	f7ff ffe6 	bl	1a0011f0 <Chip_SSP_GetPeriphClockIndex>
1a001224:	f7ff ff70 	bl	1a001108 <Chip_Clock_GetRate>

	cr0_div = 0;
	cmp_clk = 0xFFFFFFFF;
	prescale = 2;
1a001228:	2202      	movs	r2, #2
	cmp_clk = 0xFFFFFFFF;
1a00122a:	f04f 33ff 	mov.w	r3, #4294967295	; 0xffffffff
	cr0_div = 0;
1a00122e:	2100      	movs	r1, #0

	while (cmp_clk > bitRate) {
1a001230:	e000      	b.n	1a001234 <Chip_SSP_SetBitRate+0x1a>
		cmp_clk = ssp_clk / ((cr0_div + 1) * prescale);
		if (cmp_clk > bitRate) {
			cr0_div++;
1a001232:	4661      	mov	r1, ip
	while (cmp_clk > bitRate) {
1a001234:	42a3      	cmp	r3, r4
1a001236:	d90d      	bls.n	1a001254 <Chip_SSP_SetBitRate+0x3a>
		cmp_clk = ssp_clk / ((cr0_div + 1) * prescale);
1a001238:	f101 0c01 	add.w	ip, r1, #1
1a00123c:	fb01 2302 	mla	r3, r1, r2, r2
1a001240:	fbb0 f3f3 	udiv	r3, r0, r3
		if (cmp_clk > bitRate) {
1a001244:	429c      	cmp	r4, r3
1a001246:	d2f5      	bcs.n	1a001234 <Chip_SSP_SetBitRate+0x1a>
			if (cr0_div > 0xFF) {
1a001248:	f1bc 0fff 	cmp.w	ip, #255	; 0xff
1a00124c:	d9f1      	bls.n	1a001232 <Chip_SSP_SetBitRate+0x18>
				cr0_div = 0;
				prescale += 2;
1a00124e:	3202      	adds	r2, #2
				cr0_div = 0;
1a001250:	2100      	movs	r1, #0
1a001252:	e7ef      	b.n	1a001234 <Chip_SSP_SetBitRate+0x1a>
			}
		}
	}

	Chip_SSP_SetClockRate(pSSP, cr0_div, prescale);
1a001254:	4628      	mov	r0, r5
1a001256:	f7ff ffd7 	bl	1a001208 <Chip_SSP_SetClockRate>
}
1a00125a:	bd38      	pop	{r3, r4, r5, pc}

1a00125c <Chip_SSP_Init>:

/* Initialize the SSP */
void Chip_SSP_Init(LPC_SSP_T *pSSP)
{
1a00125c:	b510      	push	{r4, lr}
1a00125e:	4604      	mov	r4, r0
	Chip_Clock_Enable(Chip_SSP_GetClockIndex(pSSP));
1a001260:	f7ff ffbc 	bl	1a0011dc <Chip_SSP_GetClockIndex>
1a001264:	f7ff ff36 	bl	1a0010d4 <Chip_Clock_Enable>
	Chip_Clock_Enable(Chip_SSP_GetPeriphClockIndex(pSSP));
1a001268:	4620      	mov	r0, r4
1a00126a:	f7ff ffc1 	bl	1a0011f0 <Chip_SSP_GetPeriphClockIndex>
1a00126e:	f7ff ff31 	bl	1a0010d4 <Chip_Clock_Enable>
	pSSP->CR1 = (pSSP->CR1 & ~(1 << 2)) | mode;
1a001272:	6863      	ldr	r3, [r4, #4]
1a001274:	f023 0304 	bic.w	r3, r3, #4
1a001278:	6063      	str	r3, [r4, #4]
	pSSP->CR0 = (pSSP->CR0 & ~0xFF) | bits | frameFormat | clockMode;
1a00127a:	6823      	ldr	r3, [r4, #0]
1a00127c:	f023 03ff 	bic.w	r3, r3, #255	; 0xff
1a001280:	f043 0307 	orr.w	r3, r3, #7
1a001284:	6023      	str	r3, [r4, #0]

	Chip_SSP_Set_Mode(pSSP, SSP_MODE_MASTER);
	Chip_SSP_SetFormat(pSSP, SSP_BITS_8, SSP_FRAMEFORMAT_SPI, SSP_CLOCK_CPHA0_CPOL0);
	Chip_SSP_SetBitRate(pSSP, 100000);
1a001286:	4902      	ldr	r1, [pc, #8]	; (1a001290 <Chip_SSP_Init+0x34>)
1a001288:	4620      	mov	r0, r4
1a00128a:	f7ff ffc6 	bl	1a00121a <Chip_SSP_SetBitRate>
}
1a00128e:	bd10      	pop	{r4, pc}
1a001290:	000186a0 	.word	0x000186a0

1a001294 <Chip_SetupCoreClock>:
/*****************************************************************************
 * Public functions
 ****************************************************************************/
/* Setup Chip Core clock */
void Chip_SetupCoreClock(CHIP_CGU_CLKIN_T clkin, uint32_t core_freq, bool setbase)
{
1a001294:	b570      	push	{r4, r5, r6, lr}
1a001296:	b08a      	sub	sp, #40	; 0x28
1a001298:	4605      	mov	r5, r0
1a00129a:	460e      	mov	r6, r1
1a00129c:	4614      	mov	r4, r2
	int i;
	volatile uint32_t delay = 10000; // FIXME: original was 500, fix for horrible crystals. @Eric
1a00129e:	f242 7310 	movw	r3, #10000	; 0x2710
1a0012a2:	9309      	str	r3, [sp, #36]	; 0x24
	uint32_t direct = 0, pdivide = 0;
	PLL_PARAM_T ppll;

	if (clkin == CLKIN_CRYSTAL) {
1a0012a4:	2806      	cmp	r0, #6
1a0012a6:	d018      	beq.n	1a0012da <Chip_SetupCoreClock+0x46>
		/* Switch main system clocking to crystal */
		Chip_Clock_EnableCrystal();
	}
	Chip_Clock_SetBaseClock(CLK_BASE_MX, clkin, true, false);
1a0012a8:	2300      	movs	r3, #0
1a0012aa:	2201      	movs	r2, #1
1a0012ac:	4629      	mov	r1, r5
1a0012ae:	2004      	movs	r0, #4
1a0012b0:	f7ff feaa 	bl	1a001008 <Chip_Clock_SetBaseClock>
 * Saves power if the main PLL is not needed.
 */
__STATIC_INLINE void Chip_Clock_DisableMainPLL(void)
{
	/* power down main PLL */
	LPC_CGU->PLL1_CTRL |= 1;
1a0012b4:	4a4a      	ldr	r2, [pc, #296]	; (1a0013e0 <Chip_SetupCoreClock+0x14c>)
1a0012b6:	6c53      	ldr	r3, [r2, #68]	; 0x44
1a0012b8:	f043 0301 	orr.w	r3, r3, #1
1a0012bc:	6453      	str	r3, [r2, #68]	; 0x44
	Chip_Clock_DisableMainPLL(); /* Disable PLL */

	/* Calculate the PLL Parameters */
	ppll.srcin = clkin;
1a0012be:	f88d 5008 	strb.w	r5, [sp, #8]
	Chip_Clock_CalcMainPLLValue(core_freq, &ppll);
1a0012c2:	a901      	add	r1, sp, #4
1a0012c4:	4630      	mov	r0, r6
1a0012c6:	f7ff fe19 	bl	1a000efc <Chip_Clock_CalcMainPLLValue>

	if (core_freq > 110000000UL) {
1a0012ca:	4b46      	ldr	r3, [pc, #280]	; (1a0013e4 <Chip_SetupCoreClock+0x150>)
1a0012cc:	429e      	cmp	r6, r3
1a0012ce:	d916      	bls.n	1a0012fe <Chip_SetupCoreClock+0x6a>
		if (ppll.ctrl & (1 << 6)) {
1a0012d0:	9b01      	ldr	r3, [sp, #4]
1a0012d2:	f013 0f40 	tst.w	r3, #64	; 0x40
1a0012d6:	d003      	beq.n	1a0012e0 <Chip_SetupCoreClock+0x4c>
			while(1);		// to run in integer mode above 110 MHz, you need to use IDIV clock to boot strap CPU to that freq
1a0012d8:	e7fe      	b.n	1a0012d8 <Chip_SetupCoreClock+0x44>
		Chip_Clock_EnableCrystal();
1a0012da:	f7ff fd71 	bl	1a000dc0 <Chip_Clock_EnableCrystal>
1a0012de:	e7e3      	b.n	1a0012a8 <Chip_SetupCoreClock+0x14>
		} else if (ppll.ctrl & (1 << 7)){
1a0012e0:	f013 0f80 	tst.w	r3, #128	; 0x80
1a0012e4:	d005      	beq.n	1a0012f2 <Chip_SetupCoreClock+0x5e>
			direct = 1;
			ppll.ctrl &= ~(1 << 7);
1a0012e6:	f023 0380 	bic.w	r3, r3, #128	; 0x80
1a0012ea:	9301      	str	r3, [sp, #4]
	uint32_t direct = 0, pdivide = 0;
1a0012ec:	2600      	movs	r6, #0
			direct = 1;
1a0012ee:	2501      	movs	r5, #1
1a0012f0:	e007      	b.n	1a001302 <Chip_SetupCoreClock+0x6e>
		} else {
			pdivide = 1;
			ppll.psel++;
1a0012f2:	9b04      	ldr	r3, [sp, #16]
1a0012f4:	3301      	adds	r3, #1
1a0012f6:	9304      	str	r3, [sp, #16]
			pdivide = 1;
1a0012f8:	2601      	movs	r6, #1
	uint32_t direct = 0, pdivide = 0;
1a0012fa:	2500      	movs	r5, #0
1a0012fc:	e001      	b.n	1a001302 <Chip_SetupCoreClock+0x6e>
1a0012fe:	2600      	movs	r6, #0
1a001300:	4635      	mov	r5, r6
 * Make sure the main PLL is enabled.
 */
__STATIC_INLINE void Chip_Clock_SetupMainPLL(const PLL_PARAM_T *ppll)
{
	/* power up main PLL */
    LPC_CGU->PLL1_CTRL = ppll->ctrl | ((uint32_t) ppll->srcin << 24) | (ppll->msel << 16) | (ppll->nsel << 12) | (ppll->psel << 8) | ( 1 << 11);	
1a001302:	f89d 2008 	ldrb.w	r2, [sp, #8]
1a001306:	9b01      	ldr	r3, [sp, #4]
1a001308:	ea43 6302 	orr.w	r3, r3, r2, lsl #24
1a00130c:	9a05      	ldr	r2, [sp, #20]
1a00130e:	ea43 4302 	orr.w	r3, r3, r2, lsl #16
1a001312:	9a03      	ldr	r2, [sp, #12]
1a001314:	ea43 3302 	orr.w	r3, r3, r2, lsl #12
1a001318:	9a04      	ldr	r2, [sp, #16]
1a00131a:	ea43 2302 	orr.w	r3, r3, r2, lsl #8
1a00131e:	f443 6300 	orr.w	r3, r3, #2048	; 0x800
1a001322:	4a2f      	ldr	r2, [pc, #188]	; (1a0013e0 <Chip_SetupCoreClock+0x14c>)
1a001324:	6453      	str	r3, [r2, #68]	; 0x44
 * @note	The main PLL should be locked prior to using it as a clock input for a base clock.
 */
__STATIC_INLINE int Chip_Clock_MainPLLLocked(void)
{
	/* Return true if locked */
	return (LPC_CGU->PLL1_STAT & 1) != 0;
1a001326:	4b2e      	ldr	r3, [pc, #184]	; (1a0013e0 <Chip_SetupCoreClock+0x14c>)
1a001328:	6c1b      	ldr	r3, [r3, #64]	; 0x40

	/* Setup and start the PLL */
	Chip_Clock_SetupMainPLL(&ppll);

	/* Wait for the PLL to lock */
	while(!Chip_Clock_MainPLLLocked()) {}
1a00132a:	f013 0f01 	tst.w	r3, #1
1a00132e:	d0fa      	beq.n	1a001326 <Chip_SetupCoreClock+0x92>

	/* Set core clock base as PLL1 */
	Chip_Clock_SetBaseClock(CLK_BASE_MX, CLKIN_MAINPLL, true, false);
1a001330:	2300      	movs	r3, #0
1a001332:	2201      	movs	r2, #1
1a001334:	2109      	movs	r1, #9
1a001336:	2004      	movs	r0, #4
1a001338:	f7ff fe66 	bl	1a001008 <Chip_Clock_SetBaseClock>

	if (direct) {
1a00133c:	b305      	cbz	r5, 1a001380 <Chip_SetupCoreClock+0xec>
		delay = 10000; // FIXME: original was 1000, fix for horrible crystals. @Eric
1a00133e:	f242 7310 	movw	r3, #10000	; 0x2710
1a001342:	9309      	str	r3, [sp, #36]	; 0x24
		while(delay --){} /* Wait for approx 50 uSec -- for power supply to stabilize*/
1a001344:	9b09      	ldr	r3, [sp, #36]	; 0x24
1a001346:	1e5a      	subs	r2, r3, #1
1a001348:	9209      	str	r2, [sp, #36]	; 0x24
1a00134a:	2b00      	cmp	r3, #0
1a00134c:	d1fa      	bne.n	1a001344 <Chip_SetupCoreClock+0xb0>
		ppll.ctrl |= 1 << 7;
1a00134e:	9b01      	ldr	r3, [sp, #4]
1a001350:	f043 0380 	orr.w	r3, r3, #128	; 0x80
1a001354:	9301      	str	r3, [sp, #4]
    LPC_CGU->PLL1_CTRL = ppll->ctrl | ((uint32_t) ppll->srcin << 24) | (ppll->msel << 16) | (ppll->nsel << 12) | (ppll->psel << 8) | ( 1 << 11);	
1a001356:	f89d 2008 	ldrb.w	r2, [sp, #8]
1a00135a:	ea43 6302 	orr.w	r3, r3, r2, lsl #24
1a00135e:	9a05      	ldr	r2, [sp, #20]
1a001360:	ea43 4302 	orr.w	r3, r3, r2, lsl #16
1a001364:	9a03      	ldr	r2, [sp, #12]
1a001366:	ea43 3302 	orr.w	r3, r3, r2, lsl #12
1a00136a:	9a04      	ldr	r2, [sp, #16]
1a00136c:	ea43 2302 	orr.w	r3, r3, r2, lsl #8
1a001370:	f443 6300 	orr.w	r3, r3, #2048	; 0x800
1a001374:	4a1a      	ldr	r2, [pc, #104]	; (1a0013e0 <Chip_SetupCoreClock+0x14c>)
1a001376:	6453      	str	r3, [r2, #68]	; 0x44
		while(delay --){} /* Wait for approx 50 uSec -- for power supply to stabilize */
		ppll.psel--;
		Chip_Clock_SetupMainPLL(&ppll); /* Set PDIV to operate at full frequency */
	}

	if (setbase) {
1a001378:	2c00      	cmp	r4, #0
1a00137a:	d12e      	bne.n	1a0013da <Chip_SetupCoreClock+0x146>
		for (i = 0; i < (sizeof(InitClkStates) / sizeof(InitClkStates[0])); i++) {
			Chip_Clock_SetBaseClock(InitClkStates[i].clk, InitClkStates[i].clkin,
									InitClkStates[i].autoblock_enab, InitClkStates[i].powerdn);
		}
	}
}
1a00137c:	b00a      	add	sp, #40	; 0x28
1a00137e:	bd70      	pop	{r4, r5, r6, pc}
	} else if (pdivide) {
1a001380:	2e00      	cmp	r6, #0
1a001382:	d0f9      	beq.n	1a001378 <Chip_SetupCoreClock+0xe4>
		delay = 10000; // FIXME: original was 1000, fix for horrible crystals. @Eric
1a001384:	f242 7310 	movw	r3, #10000	; 0x2710
1a001388:	9309      	str	r3, [sp, #36]	; 0x24
		while(delay --){} /* Wait for approx 50 uSec -- for power supply to stabilize */
1a00138a:	9b09      	ldr	r3, [sp, #36]	; 0x24
1a00138c:	1e5a      	subs	r2, r3, #1
1a00138e:	9209      	str	r2, [sp, #36]	; 0x24
1a001390:	2b00      	cmp	r3, #0
1a001392:	d1fa      	bne.n	1a00138a <Chip_SetupCoreClock+0xf6>
		ppll.psel--;
1a001394:	9a04      	ldr	r2, [sp, #16]
1a001396:	3a01      	subs	r2, #1
1a001398:	9204      	str	r2, [sp, #16]
1a00139a:	f89d 1008 	ldrb.w	r1, [sp, #8]
1a00139e:	9b01      	ldr	r3, [sp, #4]
1a0013a0:	ea43 6301 	orr.w	r3, r3, r1, lsl #24
1a0013a4:	9905      	ldr	r1, [sp, #20]
1a0013a6:	ea43 4301 	orr.w	r3, r3, r1, lsl #16
1a0013aa:	9903      	ldr	r1, [sp, #12]
1a0013ac:	ea43 3301 	orr.w	r3, r3, r1, lsl #12
1a0013b0:	ea43 2302 	orr.w	r3, r3, r2, lsl #8
1a0013b4:	f443 6300 	orr.w	r3, r3, #2048	; 0x800
1a0013b8:	4a09      	ldr	r2, [pc, #36]	; (1a0013e0 <Chip_SetupCoreClock+0x14c>)
1a0013ba:	6453      	str	r3, [r2, #68]	; 0x44
}
1a0013bc:	e7dc      	b.n	1a001378 <Chip_SetupCoreClock+0xe4>
			Chip_Clock_SetBaseClock(InitClkStates[i].clk, InitClkStates[i].clkin,
1a0013be:	480a      	ldr	r0, [pc, #40]	; (1a0013e8 <Chip_SetupCoreClock+0x154>)
1a0013c0:	eb00 0184 	add.w	r1, r0, r4, lsl #2
1a0013c4:	78cb      	ldrb	r3, [r1, #3]
1a0013c6:	788a      	ldrb	r2, [r1, #2]
1a0013c8:	7849      	ldrb	r1, [r1, #1]
1a0013ca:	f810 0024 	ldrb.w	r0, [r0, r4, lsl #2]
1a0013ce:	f7ff fe1b 	bl	1a001008 <Chip_Clock_SetBaseClock>
		for (i = 0; i < (sizeof(InitClkStates) / sizeof(InitClkStates[0])); i++) {
1a0013d2:	3401      	adds	r4, #1
1a0013d4:	2c11      	cmp	r4, #17
1a0013d6:	d9f2      	bls.n	1a0013be <Chip_SetupCoreClock+0x12a>
1a0013d8:	e7d0      	b.n	1a00137c <Chip_SetupCoreClock+0xe8>
1a0013da:	2400      	movs	r4, #0
1a0013dc:	e7fa      	b.n	1a0013d4 <Chip_SetupCoreClock+0x140>
1a0013de:	bf00      	nop
1a0013e0:	40050000 	.word	0x40050000
1a0013e4:	068e7780 	.word	0x068e7780
1a0013e8:	1a002858 	.word	0x1a002858

1a0013ec <Chip_UART_GetIndex>:

/* Returns clock index for the peripheral block */
static int Chip_UART_GetIndex(LPC_USART_T *pUART)
{
	uint32_t base = (uint32_t) pUART;
	switch(base) {
1a0013ec:	4b09      	ldr	r3, [pc, #36]	; (1a001414 <Chip_UART_GetIndex+0x28>)
1a0013ee:	4298      	cmp	r0, r3
1a0013f0:	d00b      	beq.n	1a00140a <Chip_UART_GetIndex+0x1e>
1a0013f2:	f503 5380 	add.w	r3, r3, #4096	; 0x1000
1a0013f6:	4298      	cmp	r0, r3
1a0013f8:	d009      	beq.n	1a00140e <Chip_UART_GetIndex+0x22>
1a0013fa:	f5a3 2380 	sub.w	r3, r3, #262144	; 0x40000
1a0013fe:	4298      	cmp	r0, r3
1a001400:	d001      	beq.n	1a001406 <Chip_UART_GetIndex+0x1a>
1a001402:	2000      	movs	r0, #0
		case LPC_USART3_BASE:
			return 3;
		default:
			return 0; /* Should never come here */
	}
}
1a001404:	4770      	bx	lr
			return 1;
1a001406:	2001      	movs	r0, #1
1a001408:	4770      	bx	lr
			return 2;
1a00140a:	2002      	movs	r0, #2
1a00140c:	4770      	bx	lr
			return 3;
1a00140e:	2003      	movs	r0, #3
1a001410:	4770      	bx	lr
1a001412:	bf00      	nop
1a001414:	400c1000 	.word	0x400c1000

1a001418 <Chip_UART_Init>:
 * Public functions
 ****************************************************************************/

/* Initializes the pUART peripheral */
void Chip_UART_Init(LPC_USART_T *pUART)
{
1a001418:	b530      	push	{r4, r5, lr}
1a00141a:	b083      	sub	sp, #12
1a00141c:	4604      	mov	r4, r0
    volatile uint32_t tmp;

	/* Enable UART clocking. UART base clock(s) must already be enabled */
	Chip_Clock_EnableOpts(UART_PClock[Chip_UART_GetIndex(pUART)], true, true, 1);
1a00141e:	f7ff ffe5 	bl	1a0013ec <Chip_UART_GetIndex>
1a001422:	2301      	movs	r3, #1
1a001424:	461a      	mov	r2, r3
1a001426:	4619      	mov	r1, r3
1a001428:	4d0e      	ldr	r5, [pc, #56]	; (1a001464 <Chip_UART_Init+0x4c>)
1a00142a:	f835 0010 	ldrh.w	r0, [r5, r0, lsl #1]
1a00142e:	f7ff fe33 	bl	1a001098 <Chip_Clock_EnableOpts>
	pUART->FCR = fcr;
1a001432:	2307      	movs	r3, #7
1a001434:	60a3      	str	r3, [r4, #8]
    pUART->TER2 = 0;
1a001436:	2300      	movs	r3, #0
1a001438:	65e3      	str	r3, [r4, #92]	; 0x5c

    /* Disable Tx */
    Chip_UART_TXDisable(pUART);

    /* Disable interrupts */
	pUART->IER = 0;
1a00143a:	6063      	str	r3, [r4, #4]
	/* Set LCR to default state */
	pUART->LCR = 0;
1a00143c:	60e3      	str	r3, [r4, #12]
	/* Set ACR to default state */
	pUART->ACR = 0;
1a00143e:	6223      	str	r3, [r4, #32]
    /* Set RS485 control to default state */
	pUART->RS485CTRL = 0;
1a001440:	64e3      	str	r3, [r4, #76]	; 0x4c
	/* Set RS485 delay timer to default state */
	pUART->RS485DLY = 0;
1a001442:	6563      	str	r3, [r4, #84]	; 0x54
	/* Set RS485 addr match to default state */
	pUART->RS485ADRMATCH = 0;
1a001444:	6523      	str	r3, [r4, #80]	; 0x50

    /* Clear MCR */
    if (pUART == LPC_UART1) {
1a001446:	4b08      	ldr	r3, [pc, #32]	; (1a001468 <Chip_UART_Init+0x50>)
1a001448:	429c      	cmp	r4, r3
1a00144a:	d006      	beq.n	1a00145a <Chip_UART_Init+0x42>
	pUART->LCR = config;
1a00144c:	2303      	movs	r3, #3
1a00144e:	60e3      	str	r3, [r4, #12]

	/* Default 8N1, with DLAB disabled */
	Chip_UART_ConfigData(pUART, (UART_LCR_WLEN8 | UART_LCR_SBS_1BIT | UART_LCR_PARITY_DIS));

	/* Disable fractional divider */
	pUART->FDR = 0x10;
1a001450:	2310      	movs	r3, #16
1a001452:	62a3      	str	r3, [r4, #40]	; 0x28

    (void) tmp;
1a001454:	9b01      	ldr	r3, [sp, #4]
}
1a001456:	b003      	add	sp, #12
1a001458:	bd30      	pop	{r4, r5, pc}
		pUART->MCR = 0;
1a00145a:	2300      	movs	r3, #0
1a00145c:	6123      	str	r3, [r4, #16]
		tmp = pUART->MSR;
1a00145e:	69a3      	ldr	r3, [r4, #24]
1a001460:	9301      	str	r3, [sp, #4]
1a001462:	e7f3      	b.n	1a00144c <Chip_UART_Init+0x34>
1a001464:	1a0028a8 	.word	0x1a0028a8
1a001468:	40082000 	.word	0x40082000

1a00146c <Chip_UART_SetBaudFDR>:
    Chip_UART_ABIntHandler(pUART);
}

/* Determines and sets best dividers to get a target baud rate */
uint32_t Chip_UART_SetBaudFDR(LPC_USART_T *pUART, uint32_t baud)
{
1a00146c:	e92d 4ff0 	stmdb	sp!, {r4, r5, r6, r7, r8, r9, sl, fp, lr}
1a001470:	b083      	sub	sp, #12
1a001472:	9001      	str	r0, [sp, #4]
1a001474:	4688      	mov	r8, r1
	uint32_t sdiv = 0, sm = 1, sd = 0;
	uint32_t pclk, m, d;
	uint32_t odiff = -1UL; /* old best diff */

	/* Get base clock for the corresponding UART */
	pclk = Chip_Clock_GetRate(UART_BClock[Chip_UART_GetIndex(pUART)]);
1a001476:	f7ff ffb9 	bl	1a0013ec <Chip_UART_GetIndex>
1a00147a:	4b32      	ldr	r3, [pc, #200]	; (1a001544 <Chip_UART_SetBaudFDR+0xd8>)
1a00147c:	f833 0010 	ldrh.w	r0, [r3, r0, lsl #1]
1a001480:	f7ff fe42 	bl	1a001108 <Chip_Clock_GetRate>
1a001484:	4606      	mov	r6, r0
	uint32_t odiff = -1UL; /* old best diff */
1a001486:	f04f 37ff 	mov.w	r7, #4294967295	; 0xffffffff

	/* Loop through all possible fractional divider values */
	for (m = 1; odiff && m < 16; m++) {
1a00148a:	2401      	movs	r4, #1
	uint32_t sdiv = 0, sm = 1, sd = 0;
1a00148c:	f04f 0b00 	mov.w	fp, #0
1a001490:	46a2      	mov	sl, r4
1a001492:	46d9      	mov	r9, fp
	for (m = 1; odiff && m < 16; m++) {
1a001494:	e02a      	b.n	1a0014ec <Chip_UART_SetBaudFDR+0x80>
			/* Upper 32-bit of dval has div */
			div = (uint32_t) (dval >> 32);

			/* Closer to next div */
			if ((int)diff < 0) {
				diff = -diff;
1a001496:	4242      	negs	r2, r0
				div ++;
1a001498:	1c4b      	adds	r3, r1, #1
1a00149a:	e017      	b.n	1a0014cc <Chip_UART_SetBaudFDR+0x60>
			sd = d;
			sm = m;
			odiff = diff;

			/* On perfect match, break loop */
			if(!diff) {
1a00149c:	b30a      	cbz	r2, 1a0014e2 <Chip_UART_SetBaudFDR+0x76>
			odiff = diff;
1a00149e:	4617      	mov	r7, r2
			sd = d;
1a0014a0:	46ab      	mov	fp, r5
			sm = m;
1a0014a2:	46a2      	mov	sl, r4
			sdiv = div;
1a0014a4:	4699      	mov	r9, r3
		for (d = 0; d < m; d++) {
1a0014a6:	3501      	adds	r5, #1
1a0014a8:	42ac      	cmp	r4, r5
1a0014aa:	d91e      	bls.n	1a0014ea <Chip_UART_SetBaudFDR+0x7e>
			uint64_t dval = (((uint64_t) pclk << 28) * m) / (baud * (m + d));
1a0014ac:	0931      	lsrs	r1, r6, #4
1a0014ae:	0730      	lsls	r0, r6, #28
1a0014b0:	fba4 0c00 	umull	r0, ip, r4, r0
1a0014b4:	1962      	adds	r2, r4, r5
1a0014b6:	fb08 f202 	mul.w	r2, r8, r2
1a0014ba:	2300      	movs	r3, #0
1a0014bc:	fb04 c101 	mla	r1, r4, r1, ip
1a0014c0:	f000 f85e 	bl	1a001580 <__aeabi_uldivmod>
			diff = (uint32_t) dval;
1a0014c4:	4602      	mov	r2, r0
			div = (uint32_t) (dval >> 32);
1a0014c6:	460b      	mov	r3, r1
			if ((int)diff < 0) {
1a0014c8:	2800      	cmp	r0, #0
1a0014ca:	dbe4      	blt.n	1a001496 <Chip_UART_SetBaudFDR+0x2a>
			if (odiff < diff || !div || (div >> 16) || (div < 3 && d)) {
1a0014cc:	4297      	cmp	r7, r2
1a0014ce:	d3ea      	bcc.n	1a0014a6 <Chip_UART_SetBaudFDR+0x3a>
1a0014d0:	2b00      	cmp	r3, #0
1a0014d2:	d0e8      	beq.n	1a0014a6 <Chip_UART_SetBaudFDR+0x3a>
1a0014d4:	0c19      	lsrs	r1, r3, #16
1a0014d6:	d1e6      	bne.n	1a0014a6 <Chip_UART_SetBaudFDR+0x3a>
1a0014d8:	2b02      	cmp	r3, #2
1a0014da:	d8df      	bhi.n	1a00149c <Chip_UART_SetBaudFDR+0x30>
1a0014dc:	2d00      	cmp	r5, #0
1a0014de:	d0dd      	beq.n	1a00149c <Chip_UART_SetBaudFDR+0x30>
1a0014e0:	e7e1      	b.n	1a0014a6 <Chip_UART_SetBaudFDR+0x3a>
			odiff = diff;
1a0014e2:	4617      	mov	r7, r2
			sd = d;
1a0014e4:	46ab      	mov	fp, r5
			sm = m;
1a0014e6:	46a2      	mov	sl, r4
			sdiv = div;
1a0014e8:	4699      	mov	r9, r3
	for (m = 1; odiff && m < 16; m++) {
1a0014ea:	3401      	adds	r4, #1
1a0014ec:	b11f      	cbz	r7, 1a0014f6 <Chip_UART_SetBaudFDR+0x8a>
1a0014ee:	2c0f      	cmp	r4, #15
1a0014f0:	d801      	bhi.n	1a0014f6 <Chip_UART_SetBaudFDR+0x8a>
		for (d = 0; d < m; d++) {
1a0014f2:	2500      	movs	r5, #0
1a0014f4:	e7d8      	b.n	1a0014a8 <Chip_UART_SetBaudFDR+0x3c>
			}
		}
	}

	/* Return 0 if a vaild divisor is not possible */
	if (!sdiv) {
1a0014f6:	f1b9 0f00 	cmp.w	r9, #0
1a0014fa:	d01e      	beq.n	1a00153a <Chip_UART_SetBaudFDR+0xce>
	pUART->LCR |= UART_LCR_DLAB_EN;
1a0014fc:	9901      	ldr	r1, [sp, #4]
1a0014fe:	68cb      	ldr	r3, [r1, #12]
1a001500:	f043 0380 	orr.w	r3, r3, #128	; 0x80
1a001504:	60cb      	str	r3, [r1, #12]
	pUART->DLL = (uint32_t) dll;
1a001506:	fa5f f389 	uxtb.w	r3, r9
1a00150a:	600b      	str	r3, [r1, #0]
	pUART->DLM = (uint32_t) dlm;
1a00150c:	f3c9 2307 	ubfx	r3, r9, #8, #8
1a001510:	604b      	str	r3, [r1, #4]
	pUART->LCR &= ~UART_LCR_DLAB_EN;
1a001512:	68cb      	ldr	r3, [r1, #12]
1a001514:	f023 0380 	bic.w	r3, r3, #128	; 0x80
1a001518:	60cb      	str	r3, [r1, #12]
	Chip_UART_EnableDivisorAccess(pUART);
	Chip_UART_SetDivisorLatches(pUART, UART_LOAD_DLL(sdiv), UART_LOAD_DLM(sdiv));
	Chip_UART_DisableDivisorAccess(pUART);

	/* Set best fractional divider */
	pUART->FDR = (UART_FDR_MULVAL(sm) | UART_FDR_DIVADDVAL(sd));
1a00151a:	ea4f 130a 	mov.w	r3, sl, lsl #4
1a00151e:	b2db      	uxtb	r3, r3
1a001520:	f00b 020f 	and.w	r2, fp, #15
1a001524:	4313      	orrs	r3, r2
1a001526:	628b      	str	r3, [r1, #40]	; 0x28

	/* Return actual baud rate */
	return (pclk >> 4) * sm / (sdiv * (sm + sd));
1a001528:	0933      	lsrs	r3, r6, #4
1a00152a:	fb0a f303 	mul.w	r3, sl, r3
1a00152e:	eb0a 020b 	add.w	r2, sl, fp
1a001532:	fb09 f202 	mul.w	r2, r9, r2
1a001536:	fbb3 f9f2 	udiv	r9, r3, r2
}
1a00153a:	4648      	mov	r0, r9
1a00153c:	b003      	add	sp, #12
1a00153e:	e8bd 8ff0 	ldmia.w	sp!, {r4, r5, r6, r7, r8, r9, sl, fp, pc}
1a001542:	bf00      	nop
1a001544:	1a0028a0 	.word	0x1a0028a0

1a001548 <SystemInit>:
 */

#include <board.h>

void SystemInit(void)
{
1a001548:	b508      	push	{r3, lr}
   extern void *g_pfnVectors;
   SCB->VTOR = (unsigned int) &g_pfnVectors;
1a00154a:	4a0b      	ldr	r2, [pc, #44]	; (1a001578 <SystemInit+0x30>)
1a00154c:	4b0b      	ldr	r3, [pc, #44]	; (1a00157c <SystemInit+0x34>)
1a00154e:	609a      	str	r2, [r3, #8]
  mvfr0 = FPU->MVFR0;
1a001550:	f503 7300 	add.w	r3, r3, #512	; 0x200
1a001554:	6c1b      	ldr	r3, [r3, #64]	; 0x40
  if      ((mvfr0 & (FPU_MVFR0_Single_precision_Msk | FPU_MVFR0_Double_precision_Msk)) == 0x020U)
1a001556:	f403 637f 	and.w	r3, r3, #4080	; 0xff0
1a00155a:	2b20      	cmp	r3, #32
1a00155c:	d004      	beq.n	1a001568 <SystemInit+0x20>

   if (SCB_GetFPUType() > 0)
      SCB->CPACR |= ((3UL << 10*2)|(3UL << 11*2));  /* set CP10 and CP11 Full Access */

   /* Board specific SystemInit */
   Board_SystemInit();
1a00155e:	f7ff fab5 	bl	1a000acc <Board_SystemInit>
   Board_Init();
1a001562:	f7ff fa43 	bl	1a0009ec <Board_Init>
}
1a001566:	bd08      	pop	{r3, pc}
      SCB->CPACR |= ((3UL << 10*2)|(3UL << 11*2));  /* set CP10 and CP11 Full Access */
1a001568:	4a04      	ldr	r2, [pc, #16]	; (1a00157c <SystemInit+0x34>)
1a00156a:	f8d2 3088 	ldr.w	r3, [r2, #136]	; 0x88
1a00156e:	f443 0370 	orr.w	r3, r3, #15728640	; 0xf00000
1a001572:	f8c2 3088 	str.w	r3, [r2, #136]	; 0x88
1a001576:	e7f2      	b.n	1a00155e <SystemInit+0x16>
1a001578:	1a000000 	.word	0x1a000000
1a00157c:	e000ed00 	.word	0xe000ed00

1a001580 <__aeabi_uldivmod>:
1a001580:	b953      	cbnz	r3, 1a001598 <__aeabi_uldivmod+0x18>
1a001582:	b94a      	cbnz	r2, 1a001598 <__aeabi_uldivmod+0x18>
1a001584:	2900      	cmp	r1, #0
1a001586:	bf08      	it	eq
1a001588:	2800      	cmpeq	r0, #0
1a00158a:	bf1c      	itt	ne
1a00158c:	f04f 31ff 	movne.w	r1, #4294967295	; 0xffffffff
1a001590:	f04f 30ff 	movne.w	r0, #4294967295	; 0xffffffff
1a001594:	f000 b94a 	b.w	1a00182c <__aeabi_idiv0>
1a001598:	f1ad 0c08 	sub.w	ip, sp, #8
1a00159c:	e96d ce04 	strd	ip, lr, [sp, #-16]!
1a0015a0:	f000 f806 	bl	1a0015b0 <__udivmoddi4>
1a0015a4:	f8dd e004 	ldr.w	lr, [sp, #4]
1a0015a8:	e9dd 2302 	ldrd	r2, r3, [sp, #8]
1a0015ac:	b004      	add	sp, #16
1a0015ae:	4770      	bx	lr

1a0015b0 <__udivmoddi4>:
1a0015b0:	e92d 47f0 	stmdb	sp!, {r4, r5, r6, r7, r8, r9, sl, lr}
1a0015b4:	468c      	mov	ip, r1
1a0015b6:	468e      	mov	lr, r1
1a0015b8:	9e08      	ldr	r6, [sp, #32]
1a0015ba:	4615      	mov	r5, r2
1a0015bc:	4604      	mov	r4, r0
1a0015be:	4619      	mov	r1, r3
1a0015c0:	2b00      	cmp	r3, #0
1a0015c2:	f040 80af 	bne.w	1a001724 <__udivmoddi4+0x174>
1a0015c6:	4572      	cmp	r2, lr
1a0015c8:	fab2 f782 	clz	r7, r2
1a0015cc:	d943      	bls.n	1a001656 <__udivmoddi4+0xa6>
1a0015ce:	b14f      	cbz	r7, 1a0015e4 <__udivmoddi4+0x34>
1a0015d0:	f1c7 0320 	rsb	r3, r7, #32
1a0015d4:	fa0e fc07 	lsl.w	ip, lr, r7
1a0015d8:	fa20 f303 	lsr.w	r3, r0, r3
1a0015dc:	40bd      	lsls	r5, r7
1a0015de:	ea43 0c0c 	orr.w	ip, r3, ip
1a0015e2:	40bc      	lsls	r4, r7
1a0015e4:	ea4f 4e15 	mov.w	lr, r5, lsr #16
1a0015e8:	b2a8      	uxth	r0, r5
1a0015ea:	fbbc f8fe 	udiv	r8, ip, lr
1a0015ee:	0c23      	lsrs	r3, r4, #16
1a0015f0:	fb0e cc18 	mls	ip, lr, r8, ip
1a0015f4:	fb08 f900 	mul.w	r9, r8, r0
1a0015f8:	ea43 430c 	orr.w	r3, r3, ip, lsl #16
1a0015fc:	4599      	cmp	r9, r3
1a0015fe:	d928      	bls.n	1a001652 <__udivmoddi4+0xa2>
1a001600:	18eb      	adds	r3, r5, r3
1a001602:	f108 32ff 	add.w	r2, r8, #4294967295	; 0xffffffff
1a001606:	d204      	bcs.n	1a001612 <__udivmoddi4+0x62>
1a001608:	4599      	cmp	r9, r3
1a00160a:	d902      	bls.n	1a001612 <__udivmoddi4+0x62>
1a00160c:	f1a8 0202 	sub.w	r2, r8, #2
1a001610:	442b      	add	r3, r5
1a001612:	eba3 0309 	sub.w	r3, r3, r9
1a001616:	fbb3 fcfe 	udiv	ip, r3, lr
1a00161a:	b2a4      	uxth	r4, r4
1a00161c:	fb0e 331c 	mls	r3, lr, ip, r3
1a001620:	fb0c f000 	mul.w	r0, ip, r0
1a001624:	ea44 4403 	orr.w	r4, r4, r3, lsl #16
1a001628:	42a0      	cmp	r0, r4
1a00162a:	d979      	bls.n	1a001720 <__udivmoddi4+0x170>
1a00162c:	192c      	adds	r4, r5, r4
1a00162e:	f10c 33ff 	add.w	r3, ip, #4294967295	; 0xffffffff
1a001632:	d204      	bcs.n	1a00163e <__udivmoddi4+0x8e>
1a001634:	42a0      	cmp	r0, r4
1a001636:	d902      	bls.n	1a00163e <__udivmoddi4+0x8e>
1a001638:	f1ac 0302 	sub.w	r3, ip, #2
1a00163c:	442c      	add	r4, r5
1a00163e:	1a24      	subs	r4, r4, r0
1a001640:	ea43 4002 	orr.w	r0, r3, r2, lsl #16
1a001644:	b11e      	cbz	r6, 1a00164e <__udivmoddi4+0x9e>
1a001646:	40fc      	lsrs	r4, r7
1a001648:	2300      	movs	r3, #0
1a00164a:	6034      	str	r4, [r6, #0]
1a00164c:	6073      	str	r3, [r6, #4]
1a00164e:	e8bd 87f0 	ldmia.w	sp!, {r4, r5, r6, r7, r8, r9, sl, pc}
1a001652:	4642      	mov	r2, r8
1a001654:	e7dd      	b.n	1a001612 <__udivmoddi4+0x62>
1a001656:	b902      	cbnz	r2, 1a00165a <__udivmoddi4+0xaa>
1a001658:	deff      	udf	#255	; 0xff
1a00165a:	b9e7      	cbnz	r7, 1a001696 <__udivmoddi4+0xe6>
1a00165c:	ebae 0302 	sub.w	r3, lr, r2
1a001660:	2101      	movs	r1, #1
1a001662:	ea4f 4e15 	mov.w	lr, r5, lsr #16
1a001666:	b2a8      	uxth	r0, r5
1a001668:	fbb3 fcfe 	udiv	ip, r3, lr
1a00166c:	0c22      	lsrs	r2, r4, #16
1a00166e:	fb0e 331c 	mls	r3, lr, ip, r3
1a001672:	fb0c f800 	mul.w	r8, ip, r0
1a001676:	ea42 4303 	orr.w	r3, r2, r3, lsl #16
1a00167a:	4598      	cmp	r8, r3
1a00167c:	d94e      	bls.n	1a00171c <__udivmoddi4+0x16c>
1a00167e:	18eb      	adds	r3, r5, r3
1a001680:	f10c 32ff 	add.w	r2, ip, #4294967295	; 0xffffffff
1a001684:	d204      	bcs.n	1a001690 <__udivmoddi4+0xe0>
1a001686:	4598      	cmp	r8, r3
1a001688:	d902      	bls.n	1a001690 <__udivmoddi4+0xe0>
1a00168a:	f1ac 0202 	sub.w	r2, ip, #2
1a00168e:	442b      	add	r3, r5
1a001690:	eba3 0308 	sub.w	r3, r3, r8
1a001694:	e7bf      	b.n	1a001616 <__udivmoddi4+0x66>
1a001696:	f1c7 0120 	rsb	r1, r7, #32
1a00169a:	fa2e f301 	lsr.w	r3, lr, r1
1a00169e:	40bd      	lsls	r5, r7
1a0016a0:	fa0e fe07 	lsl.w	lr, lr, r7
1a0016a4:	fa20 f101 	lsr.w	r1, r0, r1
1a0016a8:	ea41 010e 	orr.w	r1, r1, lr
1a0016ac:	ea4f 4e15 	mov.w	lr, r5, lsr #16
1a0016b0:	b2aa      	uxth	r2, r5
1a0016b2:	fbb3 fcfe 	udiv	ip, r3, lr
1a0016b6:	fb0e 301c 	mls	r0, lr, ip, r3
1a0016ba:	0c0b      	lsrs	r3, r1, #16
1a0016bc:	fb0c f802 	mul.w	r8, ip, r2
1a0016c0:	ea43 4300 	orr.w	r3, r3, r0, lsl #16
1a0016c4:	4598      	cmp	r8, r3
1a0016c6:	fa04 f407 	lsl.w	r4, r4, r7
1a0016ca:	d923      	bls.n	1a001714 <__udivmoddi4+0x164>
1a0016cc:	18eb      	adds	r3, r5, r3
1a0016ce:	f10c 30ff 	add.w	r0, ip, #4294967295	; 0xffffffff
1a0016d2:	d204      	bcs.n	1a0016de <__udivmoddi4+0x12e>
1a0016d4:	4598      	cmp	r8, r3
1a0016d6:	d902      	bls.n	1a0016de <__udivmoddi4+0x12e>
1a0016d8:	f1ac 0002 	sub.w	r0, ip, #2
1a0016dc:	442b      	add	r3, r5
1a0016de:	eba3 0308 	sub.w	r3, r3, r8
1a0016e2:	fbb3 fcfe 	udiv	ip, r3, lr
1a0016e6:	fb0c f802 	mul.w	r8, ip, r2
1a0016ea:	fb0e 321c 	mls	r2, lr, ip, r3
1a0016ee:	b28b      	uxth	r3, r1
1a0016f0:	ea43 4302 	orr.w	r3, r3, r2, lsl #16
1a0016f4:	4598      	cmp	r8, r3
1a0016f6:	d90f      	bls.n	1a001718 <__udivmoddi4+0x168>
1a0016f8:	18eb      	adds	r3, r5, r3
1a0016fa:	f10c 31ff 	add.w	r1, ip, #4294967295	; 0xffffffff
1a0016fe:	d204      	bcs.n	1a00170a <__udivmoddi4+0x15a>
1a001700:	4598      	cmp	r8, r3
1a001702:	d902      	bls.n	1a00170a <__udivmoddi4+0x15a>
1a001704:	f1ac 0102 	sub.w	r1, ip, #2
1a001708:	442b      	add	r3, r5
1a00170a:	eba3 0308 	sub.w	r3, r3, r8
1a00170e:	ea41 4100 	orr.w	r1, r1, r0, lsl #16
1a001712:	e7a6      	b.n	1a001662 <__udivmoddi4+0xb2>
1a001714:	4660      	mov	r0, ip
1a001716:	e7e2      	b.n	1a0016de <__udivmoddi4+0x12e>
1a001718:	4661      	mov	r1, ip
1a00171a:	e7f6      	b.n	1a00170a <__udivmoddi4+0x15a>
1a00171c:	4662      	mov	r2, ip
1a00171e:	e7b7      	b.n	1a001690 <__udivmoddi4+0xe0>
1a001720:	4663      	mov	r3, ip
1a001722:	e78c      	b.n	1a00163e <__udivmoddi4+0x8e>
1a001724:	4573      	cmp	r3, lr
1a001726:	d905      	bls.n	1a001734 <__udivmoddi4+0x184>
1a001728:	b10e      	cbz	r6, 1a00172e <__udivmoddi4+0x17e>
1a00172a:	e9c6 0e00 	strd	r0, lr, [r6]
1a00172e:	2100      	movs	r1, #0
1a001730:	4608      	mov	r0, r1
1a001732:	e78c      	b.n	1a00164e <__udivmoddi4+0x9e>
1a001734:	fab3 f783 	clz	r7, r3
1a001738:	b987      	cbnz	r7, 1a00175c <__udivmoddi4+0x1ac>
1a00173a:	4573      	cmp	r3, lr
1a00173c:	d301      	bcc.n	1a001742 <__udivmoddi4+0x192>
1a00173e:	4282      	cmp	r2, r0
1a001740:	d80a      	bhi.n	1a001758 <__udivmoddi4+0x1a8>
1a001742:	1a84      	subs	r4, r0, r2
1a001744:	eb6e 0303 	sbc.w	r3, lr, r3
1a001748:	2001      	movs	r0, #1
1a00174a:	469c      	mov	ip, r3
1a00174c:	2e00      	cmp	r6, #0
1a00174e:	d06a      	beq.n	1a001826 <__udivmoddi4+0x276>
1a001750:	e9c6 4c00 	strd	r4, ip, [r6]
1a001754:	2100      	movs	r1, #0
1a001756:	e77a      	b.n	1a00164e <__udivmoddi4+0x9e>
1a001758:	4638      	mov	r0, r7
1a00175a:	e7f7      	b.n	1a00174c <__udivmoddi4+0x19c>
1a00175c:	f1c7 0c20 	rsb	ip, r7, #32
1a001760:	40bb      	lsls	r3, r7
1a001762:	fa22 f40c 	lsr.w	r4, r2, ip
1a001766:	431c      	orrs	r4, r3
1a001768:	fa20 f10c 	lsr.w	r1, r0, ip
1a00176c:	fa2e f30c 	lsr.w	r3, lr, ip
1a001770:	fa0e fe07 	lsl.w	lr, lr, r7
1a001774:	ea41 010e 	orr.w	r1, r1, lr
1a001778:	ea4f 4914 	mov.w	r9, r4, lsr #16
1a00177c:	fa00 f507 	lsl.w	r5, r0, r7
1a001780:	fbb3 f8f9 	udiv	r8, r3, r9
1a001784:	fa1f fe84 	uxth.w	lr, r4
1a001788:	fb09 3018 	mls	r0, r9, r8, r3
1a00178c:	0c0b      	lsrs	r3, r1, #16
1a00178e:	fb08 fa0e 	mul.w	sl, r8, lr
1a001792:	ea43 4300 	orr.w	r3, r3, r0, lsl #16
1a001796:	459a      	cmp	sl, r3
1a001798:	fa02 f207 	lsl.w	r2, r2, r7
1a00179c:	d93f      	bls.n	1a00181e <__udivmoddi4+0x26e>
1a00179e:	18e3      	adds	r3, r4, r3
1a0017a0:	f108 30ff 	add.w	r0, r8, #4294967295	; 0xffffffff
1a0017a4:	d204      	bcs.n	1a0017b0 <__udivmoddi4+0x200>
1a0017a6:	459a      	cmp	sl, r3
1a0017a8:	d902      	bls.n	1a0017b0 <__udivmoddi4+0x200>
1a0017aa:	f1a8 0002 	sub.w	r0, r8, #2
1a0017ae:	4423      	add	r3, r4
1a0017b0:	eba3 030a 	sub.w	r3, r3, sl
1a0017b4:	b289      	uxth	r1, r1
1a0017b6:	fbb3 f8f9 	udiv	r8, r3, r9
1a0017ba:	fb09 3318 	mls	r3, r9, r8, r3
1a0017be:	fb08 fe0e 	mul.w	lr, r8, lr
1a0017c2:	ea41 4103 	orr.w	r1, r1, r3, lsl #16
1a0017c6:	458e      	cmp	lr, r1
1a0017c8:	d92b      	bls.n	1a001822 <__udivmoddi4+0x272>
1a0017ca:	1861      	adds	r1, r4, r1
1a0017cc:	f108 33ff 	add.w	r3, r8, #4294967295	; 0xffffffff
1a0017d0:	d204      	bcs.n	1a0017dc <__udivmoddi4+0x22c>
1a0017d2:	458e      	cmp	lr, r1
1a0017d4:	d902      	bls.n	1a0017dc <__udivmoddi4+0x22c>
1a0017d6:	f1a8 0302 	sub.w	r3, r8, #2
1a0017da:	4421      	add	r1, r4
1a0017dc:	ea43 4000 	orr.w	r0, r3, r0, lsl #16
1a0017e0:	fba0 9802 	umull	r9, r8, r0, r2
1a0017e4:	eba1 010e 	sub.w	r1, r1, lr
1a0017e8:	4541      	cmp	r1, r8
1a0017ea:	46ce      	mov	lr, r9
1a0017ec:	4643      	mov	r3, r8
1a0017ee:	d302      	bcc.n	1a0017f6 <__udivmoddi4+0x246>
1a0017f0:	d106      	bne.n	1a001800 <__udivmoddi4+0x250>
1a0017f2:	454d      	cmp	r5, r9
1a0017f4:	d204      	bcs.n	1a001800 <__udivmoddi4+0x250>
1a0017f6:	ebb9 0e02 	subs.w	lr, r9, r2
1a0017fa:	eb68 0304 	sbc.w	r3, r8, r4
1a0017fe:	3801      	subs	r0, #1
1a001800:	b18e      	cbz	r6, 1a001826 <__udivmoddi4+0x276>
1a001802:	ebb5 020e 	subs.w	r2, r5, lr
1a001806:	eb61 0103 	sbc.w	r1, r1, r3
1a00180a:	fa01 fc0c 	lsl.w	ip, r1, ip
1a00180e:	fa22 f307 	lsr.w	r3, r2, r7
1a001812:	ea4c 0303 	orr.w	r3, ip, r3
1a001816:	40f9      	lsrs	r1, r7
1a001818:	e9c6 3100 	strd	r3, r1, [r6]
1a00181c:	e79a      	b.n	1a001754 <__udivmoddi4+0x1a4>
1a00181e:	4640      	mov	r0, r8
1a001820:	e7c6      	b.n	1a0017b0 <__udivmoddi4+0x200>
1a001822:	4643      	mov	r3, r8
1a001824:	e7da      	b.n	1a0017dc <__udivmoddi4+0x22c>
1a001826:	4631      	mov	r1, r6
1a001828:	e711      	b.n	1a00164e <__udivmoddi4+0x9e>
	...

1a00182c <__aeabi_idiv0>:
1a00182c:	4770      	bx	lr
1a00182e:	bf00      	nop

1a001830 <__libc_init_array>:
1a001830:	b570      	push	{r4, r5, r6, lr}
1a001832:	4d0d      	ldr	r5, [pc, #52]	; (1a001868 <__libc_init_array+0x38>)
1a001834:	4c0d      	ldr	r4, [pc, #52]	; (1a00186c <__libc_init_array+0x3c>)
1a001836:	1b64      	subs	r4, r4, r5
1a001838:	10a4      	asrs	r4, r4, #2
1a00183a:	2600      	movs	r6, #0
1a00183c:	42a6      	cmp	r6, r4
1a00183e:	d109      	bne.n	1a001854 <__libc_init_array+0x24>
1a001840:	4d0b      	ldr	r5, [pc, #44]	; (1a001870 <__libc_init_array+0x40>)
1a001842:	4c0c      	ldr	r4, [pc, #48]	; (1a001874 <__libc_init_array+0x44>)
1a001844:	f7fe fef3 	bl	1a00062e <_init>
1a001848:	1b64      	subs	r4, r4, r5
1a00184a:	10a4      	asrs	r4, r4, #2
1a00184c:	2600      	movs	r6, #0
1a00184e:	42a6      	cmp	r6, r4
1a001850:	d105      	bne.n	1a00185e <__libc_init_array+0x2e>
1a001852:	bd70      	pop	{r4, r5, r6, pc}
1a001854:	f855 3b04 	ldr.w	r3, [r5], #4
1a001858:	4798      	blx	r3
1a00185a:	3601      	adds	r6, #1
1a00185c:	e7ee      	b.n	1a00183c <__libc_init_array+0xc>
1a00185e:	f855 3b04 	ldr.w	r3, [r5], #4
1a001862:	4798      	blx	r3
1a001864:	3601      	adds	r6, #1
1a001866:	e7f2      	b.n	1a00184e <__libc_init_array+0x1e>
1a001868:	1a000300 	.word	0x1a000300
1a00186c:	1a000300 	.word	0x1a000300
1a001870:	1a000300 	.word	0x1a000300
1a001874:	1a000304 	.word	0x1a000304

1a001878 <memset>:
1a001878:	4402      	add	r2, r0
1a00187a:	4603      	mov	r3, r0
1a00187c:	4293      	cmp	r3, r2
1a00187e:	d100      	bne.n	1a001882 <memset+0xa>
1a001880:	4770      	bx	lr
1a001882:	f803 1b01 	strb.w	r1, [r3], #1
1a001886:	e7f9      	b.n	1a00187c <memset+0x4>

1a001888 <iprintf>:
1a001888:	b40f      	push	{r0, r1, r2, r3}
1a00188a:	4b0a      	ldr	r3, [pc, #40]	; (1a0018b4 <iprintf+0x2c>)
1a00188c:	b513      	push	{r0, r1, r4, lr}
1a00188e:	681c      	ldr	r4, [r3, #0]
1a001890:	b124      	cbz	r4, 1a00189c <iprintf+0x14>
1a001892:	69a3      	ldr	r3, [r4, #24]
1a001894:	b913      	cbnz	r3, 1a00189c <iprintf+0x14>
1a001896:	4620      	mov	r0, r4
1a001898:	f000 f866 	bl	1a001968 <__sinit>
1a00189c:	ab05      	add	r3, sp, #20
1a00189e:	9a04      	ldr	r2, [sp, #16]
1a0018a0:	68a1      	ldr	r1, [r4, #8]
1a0018a2:	9301      	str	r3, [sp, #4]
1a0018a4:	4620      	mov	r0, r4
1a0018a6:	f000 f983 	bl	1a001bb0 <_vfiprintf_r>
1a0018aa:	b002      	add	sp, #8
1a0018ac:	e8bd 4010 	ldmia.w	sp!, {r4, lr}
1a0018b0:	b004      	add	sp, #16
1a0018b2:	4770      	bx	lr
1a0018b4:	10000038 	.word	0x10000038

1a0018b8 <std>:
1a0018b8:	2300      	movs	r3, #0
1a0018ba:	b510      	push	{r4, lr}
1a0018bc:	4604      	mov	r4, r0
1a0018be:	e9c0 3300 	strd	r3, r3, [r0]
1a0018c2:	e9c0 3304 	strd	r3, r3, [r0, #16]
1a0018c6:	6083      	str	r3, [r0, #8]
1a0018c8:	8181      	strh	r1, [r0, #12]
1a0018ca:	6643      	str	r3, [r0, #100]	; 0x64
1a0018cc:	81c2      	strh	r2, [r0, #14]
1a0018ce:	6183      	str	r3, [r0, #24]
1a0018d0:	4619      	mov	r1, r3
1a0018d2:	2208      	movs	r2, #8
1a0018d4:	305c      	adds	r0, #92	; 0x5c
1a0018d6:	f7ff ffcf 	bl	1a001878 <memset>
1a0018da:	4b05      	ldr	r3, [pc, #20]	; (1a0018f0 <std+0x38>)
1a0018dc:	6263      	str	r3, [r4, #36]	; 0x24
1a0018de:	4b05      	ldr	r3, [pc, #20]	; (1a0018f4 <std+0x3c>)
1a0018e0:	62a3      	str	r3, [r4, #40]	; 0x28
1a0018e2:	4b05      	ldr	r3, [pc, #20]	; (1a0018f8 <std+0x40>)
1a0018e4:	62e3      	str	r3, [r4, #44]	; 0x2c
1a0018e6:	4b05      	ldr	r3, [pc, #20]	; (1a0018fc <std+0x44>)
1a0018e8:	6224      	str	r4, [r4, #32]
1a0018ea:	6323      	str	r3, [r4, #48]	; 0x30
1a0018ec:	bd10      	pop	{r4, pc}
1a0018ee:	bf00      	nop
1a0018f0:	1a001e11 	.word	0x1a001e11
1a0018f4:	1a001e33 	.word	0x1a001e33
1a0018f8:	1a001e6b 	.word	0x1a001e6b
1a0018fc:	1a001e8f 	.word	0x1a001e8f

1a001900 <_cleanup_r>:
1a001900:	4901      	ldr	r1, [pc, #4]	; (1a001908 <_cleanup_r+0x8>)
1a001902:	f000 b8af 	b.w	1a001a64 <_fwalk_reent>
1a001906:	bf00      	nop
1a001908:	1a002125 	.word	0x1a002125

1a00190c <__sfmoreglue>:
1a00190c:	b570      	push	{r4, r5, r6, lr}
1a00190e:	2268      	movs	r2, #104	; 0x68
1a001910:	1e4d      	subs	r5, r1, #1
1a001912:	4355      	muls	r5, r2
1a001914:	460e      	mov	r6, r1
1a001916:	f105 0174 	add.w	r1, r5, #116	; 0x74
1a00191a:	f000 f8c5 	bl	1a001aa8 <_malloc_r>
1a00191e:	4604      	mov	r4, r0
1a001920:	b140      	cbz	r0, 1a001934 <__sfmoreglue+0x28>
1a001922:	2100      	movs	r1, #0
1a001924:	e9c0 1600 	strd	r1, r6, [r0]
1a001928:	300c      	adds	r0, #12
1a00192a:	60a0      	str	r0, [r4, #8]
1a00192c:	f105 0268 	add.w	r2, r5, #104	; 0x68
1a001930:	f7ff ffa2 	bl	1a001878 <memset>
1a001934:	4620      	mov	r0, r4
1a001936:	bd70      	pop	{r4, r5, r6, pc}

1a001938 <__sfp_lock_acquire>:
1a001938:	4801      	ldr	r0, [pc, #4]	; (1a001940 <__sfp_lock_acquire+0x8>)
1a00193a:	f000 b8b3 	b.w	1a001aa4 <__retarget_lock_acquire_recursive>
1a00193e:	bf00      	nop
1a001940:	100000b5 	.word	0x100000b5

1a001944 <__sfp_lock_release>:
1a001944:	4801      	ldr	r0, [pc, #4]	; (1a00194c <__sfp_lock_release+0x8>)
1a001946:	f000 b8ae 	b.w	1a001aa6 <__retarget_lock_release_recursive>
1a00194a:	bf00      	nop
1a00194c:	100000b5 	.word	0x100000b5

1a001950 <__sinit_lock_acquire>:
1a001950:	4801      	ldr	r0, [pc, #4]	; (1a001958 <__sinit_lock_acquire+0x8>)
1a001952:	f000 b8a7 	b.w	1a001aa4 <__retarget_lock_acquire_recursive>
1a001956:	bf00      	nop
1a001958:	100000b6 	.word	0x100000b6

1a00195c <__sinit_lock_release>:
1a00195c:	4801      	ldr	r0, [pc, #4]	; (1a001964 <__sinit_lock_release+0x8>)
1a00195e:	f000 b8a2 	b.w	1a001aa6 <__retarget_lock_release_recursive>
1a001962:	bf00      	nop
1a001964:	100000b6 	.word	0x100000b6

1a001968 <__sinit>:
1a001968:	b510      	push	{r4, lr}
1a00196a:	4604      	mov	r4, r0
1a00196c:	f7ff fff0 	bl	1a001950 <__sinit_lock_acquire>
1a001970:	69a3      	ldr	r3, [r4, #24]
1a001972:	b11b      	cbz	r3, 1a00197c <__sinit+0x14>
1a001974:	e8bd 4010 	ldmia.w	sp!, {r4, lr}
1a001978:	f7ff bff0 	b.w	1a00195c <__sinit_lock_release>
1a00197c:	e9c4 3312 	strd	r3, r3, [r4, #72]	; 0x48
1a001980:	6523      	str	r3, [r4, #80]	; 0x50
1a001982:	4b13      	ldr	r3, [pc, #76]	; (1a0019d0 <__sinit+0x68>)
1a001984:	4a13      	ldr	r2, [pc, #76]	; (1a0019d4 <__sinit+0x6c>)
1a001986:	681b      	ldr	r3, [r3, #0]
1a001988:	62a2      	str	r2, [r4, #40]	; 0x28
1a00198a:	42a3      	cmp	r3, r4
1a00198c:	bf04      	itt	eq
1a00198e:	2301      	moveq	r3, #1
1a001990:	61a3      	streq	r3, [r4, #24]
1a001992:	4620      	mov	r0, r4
1a001994:	f000 f820 	bl	1a0019d8 <__sfp>
1a001998:	6060      	str	r0, [r4, #4]
1a00199a:	4620      	mov	r0, r4
1a00199c:	f000 f81c 	bl	1a0019d8 <__sfp>
1a0019a0:	60a0      	str	r0, [r4, #8]
1a0019a2:	4620      	mov	r0, r4
1a0019a4:	f000 f818 	bl	1a0019d8 <__sfp>
1a0019a8:	2200      	movs	r2, #0
1a0019aa:	60e0      	str	r0, [r4, #12]
1a0019ac:	2104      	movs	r1, #4
1a0019ae:	6860      	ldr	r0, [r4, #4]
1a0019b0:	f7ff ff82 	bl	1a0018b8 <std>
1a0019b4:	68a0      	ldr	r0, [r4, #8]
1a0019b6:	2201      	movs	r2, #1
1a0019b8:	2109      	movs	r1, #9
1a0019ba:	f7ff ff7d 	bl	1a0018b8 <std>
1a0019be:	68e0      	ldr	r0, [r4, #12]
1a0019c0:	2202      	movs	r2, #2
1a0019c2:	2112      	movs	r1, #18
1a0019c4:	f7ff ff78 	bl	1a0018b8 <std>
1a0019c8:	2301      	movs	r3, #1
1a0019ca:	61a3      	str	r3, [r4, #24]
1a0019cc:	e7d2      	b.n	1a001974 <__sinit+0xc>
1a0019ce:	bf00      	nop
1a0019d0:	1a002910 	.word	0x1a002910
1a0019d4:	1a001901 	.word	0x1a001901

1a0019d8 <__sfp>:
1a0019d8:	b5f8      	push	{r3, r4, r5, r6, r7, lr}
1a0019da:	4607      	mov	r7, r0
1a0019dc:	f7ff ffac 	bl	1a001938 <__sfp_lock_acquire>
1a0019e0:	4b1e      	ldr	r3, [pc, #120]	; (1a001a5c <__sfp+0x84>)
1a0019e2:	681e      	ldr	r6, [r3, #0]
1a0019e4:	69b3      	ldr	r3, [r6, #24]
1a0019e6:	b913      	cbnz	r3, 1a0019ee <__sfp+0x16>
1a0019e8:	4630      	mov	r0, r6
1a0019ea:	f7ff ffbd 	bl	1a001968 <__sinit>
1a0019ee:	3648      	adds	r6, #72	; 0x48
1a0019f0:	e9d6 3401 	ldrd	r3, r4, [r6, #4]
1a0019f4:	3b01      	subs	r3, #1
1a0019f6:	d503      	bpl.n	1a001a00 <__sfp+0x28>
1a0019f8:	6833      	ldr	r3, [r6, #0]
1a0019fa:	b30b      	cbz	r3, 1a001a40 <__sfp+0x68>
1a0019fc:	6836      	ldr	r6, [r6, #0]
1a0019fe:	e7f7      	b.n	1a0019f0 <__sfp+0x18>
1a001a00:	f9b4 500c 	ldrsh.w	r5, [r4, #12]
1a001a04:	b9d5      	cbnz	r5, 1a001a3c <__sfp+0x64>
1a001a06:	4b16      	ldr	r3, [pc, #88]	; (1a001a60 <__sfp+0x88>)
1a001a08:	60e3      	str	r3, [r4, #12]
1a001a0a:	f104 0058 	add.w	r0, r4, #88	; 0x58
1a001a0e:	6665      	str	r5, [r4, #100]	; 0x64
1a001a10:	f000 f847 	bl	1a001aa2 <__retarget_lock_init_recursive>
1a001a14:	f7ff ff96 	bl	1a001944 <__sfp_lock_release>
1a001a18:	e9c4 5501 	strd	r5, r5, [r4, #4]
1a001a1c:	e9c4 5504 	strd	r5, r5, [r4, #16]
1a001a20:	6025      	str	r5, [r4, #0]
1a001a22:	61a5      	str	r5, [r4, #24]
1a001a24:	2208      	movs	r2, #8
1a001a26:	4629      	mov	r1, r5
1a001a28:	f104 005c 	add.w	r0, r4, #92	; 0x5c
1a001a2c:	f7ff ff24 	bl	1a001878 <memset>
1a001a30:	e9c4 550d 	strd	r5, r5, [r4, #52]	; 0x34
1a001a34:	e9c4 5512 	strd	r5, r5, [r4, #72]	; 0x48
1a001a38:	4620      	mov	r0, r4
1a001a3a:	bdf8      	pop	{r3, r4, r5, r6, r7, pc}
1a001a3c:	3468      	adds	r4, #104	; 0x68
1a001a3e:	e7d9      	b.n	1a0019f4 <__sfp+0x1c>
1a001a40:	2104      	movs	r1, #4
1a001a42:	4638      	mov	r0, r7
1a001a44:	f7ff ff62 	bl	1a00190c <__sfmoreglue>
1a001a48:	4604      	mov	r4, r0
1a001a4a:	6030      	str	r0, [r6, #0]
1a001a4c:	2800      	cmp	r0, #0
1a001a4e:	d1d5      	bne.n	1a0019fc <__sfp+0x24>
1a001a50:	f7ff ff78 	bl	1a001944 <__sfp_lock_release>
1a001a54:	230c      	movs	r3, #12
1a001a56:	603b      	str	r3, [r7, #0]
1a001a58:	e7ee      	b.n	1a001a38 <__sfp+0x60>
1a001a5a:	bf00      	nop
1a001a5c:	1a002910 	.word	0x1a002910
1a001a60:	ffff0001 	.word	0xffff0001

1a001a64 <_fwalk_reent>:
1a001a64:	e92d 43f8 	stmdb	sp!, {r3, r4, r5, r6, r7, r8, r9, lr}
1a001a68:	4606      	mov	r6, r0
1a001a6a:	4688      	mov	r8, r1
1a001a6c:	f100 0448 	add.w	r4, r0, #72	; 0x48
1a001a70:	2700      	movs	r7, #0
1a001a72:	e9d4 9501 	ldrd	r9, r5, [r4, #4]
1a001a76:	f1b9 0901 	subs.w	r9, r9, #1
1a001a7a:	d505      	bpl.n	1a001a88 <_fwalk_reent+0x24>
1a001a7c:	6824      	ldr	r4, [r4, #0]
1a001a7e:	2c00      	cmp	r4, #0
1a001a80:	d1f7      	bne.n	1a001a72 <_fwalk_reent+0xe>
1a001a82:	4638      	mov	r0, r7
1a001a84:	e8bd 83f8 	ldmia.w	sp!, {r3, r4, r5, r6, r7, r8, r9, pc}
1a001a88:	89ab      	ldrh	r3, [r5, #12]
1a001a8a:	2b01      	cmp	r3, #1
1a001a8c:	d907      	bls.n	1a001a9e <_fwalk_reent+0x3a>
1a001a8e:	f9b5 300e 	ldrsh.w	r3, [r5, #14]
1a001a92:	3301      	adds	r3, #1
1a001a94:	d003      	beq.n	1a001a9e <_fwalk_reent+0x3a>
1a001a96:	4629      	mov	r1, r5
1a001a98:	4630      	mov	r0, r6
1a001a9a:	47c0      	blx	r8
1a001a9c:	4307      	orrs	r7, r0
1a001a9e:	3568      	adds	r5, #104	; 0x68
1a001aa0:	e7e9      	b.n	1a001a76 <_fwalk_reent+0x12>

1a001aa2 <__retarget_lock_init_recursive>:
1a001aa2:	4770      	bx	lr

1a001aa4 <__retarget_lock_acquire_recursive>:
1a001aa4:	4770      	bx	lr

1a001aa6 <__retarget_lock_release_recursive>:
1a001aa6:	4770      	bx	lr

1a001aa8 <_malloc_r>:
1a001aa8:	b5f8      	push	{r3, r4, r5, r6, r7, lr}
1a001aaa:	1ccd      	adds	r5, r1, #3
1a001aac:	f025 0503 	bic.w	r5, r5, #3
1a001ab0:	3508      	adds	r5, #8
1a001ab2:	2d0c      	cmp	r5, #12
1a001ab4:	bf38      	it	cc
1a001ab6:	250c      	movcc	r5, #12
1a001ab8:	2d00      	cmp	r5, #0
1a001aba:	4606      	mov	r6, r0
1a001abc:	db01      	blt.n	1a001ac2 <_malloc_r+0x1a>
1a001abe:	42a9      	cmp	r1, r5
1a001ac0:	d903      	bls.n	1a001aca <_malloc_r+0x22>
1a001ac2:	230c      	movs	r3, #12
1a001ac4:	6033      	str	r3, [r6, #0]
1a001ac6:	2000      	movs	r0, #0
1a001ac8:	bdf8      	pop	{r3, r4, r5, r6, r7, pc}
1a001aca:	f000 fc21 	bl	1a002310 <__malloc_lock>
1a001ace:	4921      	ldr	r1, [pc, #132]	; (1a001b54 <_malloc_r+0xac>)
1a001ad0:	680a      	ldr	r2, [r1, #0]
1a001ad2:	4614      	mov	r4, r2
1a001ad4:	b99c      	cbnz	r4, 1a001afe <_malloc_r+0x56>
1a001ad6:	4f20      	ldr	r7, [pc, #128]	; (1a001b58 <_malloc_r+0xb0>)
1a001ad8:	683b      	ldr	r3, [r7, #0]
1a001ada:	b923      	cbnz	r3, 1a001ae6 <_malloc_r+0x3e>
1a001adc:	4621      	mov	r1, r4
1a001ade:	4630      	mov	r0, r6
1a001ae0:	f7fe fdfa 	bl	1a0006d8 <_sbrk_r>
1a001ae4:	6038      	str	r0, [r7, #0]
1a001ae6:	4629      	mov	r1, r5
1a001ae8:	4630      	mov	r0, r6
1a001aea:	f7fe fdf5 	bl	1a0006d8 <_sbrk_r>
1a001aee:	1c43      	adds	r3, r0, #1
1a001af0:	d123      	bne.n	1a001b3a <_malloc_r+0x92>
1a001af2:	230c      	movs	r3, #12
1a001af4:	6033      	str	r3, [r6, #0]
1a001af6:	4630      	mov	r0, r6
1a001af8:	f000 fc10 	bl	1a00231c <__malloc_unlock>
1a001afc:	e7e3      	b.n	1a001ac6 <_malloc_r+0x1e>
1a001afe:	6823      	ldr	r3, [r4, #0]
1a001b00:	1b5b      	subs	r3, r3, r5
1a001b02:	d417      	bmi.n	1a001b34 <_malloc_r+0x8c>
1a001b04:	2b0b      	cmp	r3, #11
1a001b06:	d903      	bls.n	1a001b10 <_malloc_r+0x68>
1a001b08:	6023      	str	r3, [r4, #0]
1a001b0a:	441c      	add	r4, r3
1a001b0c:	6025      	str	r5, [r4, #0]
1a001b0e:	e004      	b.n	1a001b1a <_malloc_r+0x72>
1a001b10:	6863      	ldr	r3, [r4, #4]
1a001b12:	42a2      	cmp	r2, r4
1a001b14:	bf0c      	ite	eq
1a001b16:	600b      	streq	r3, [r1, #0]
1a001b18:	6053      	strne	r3, [r2, #4]
1a001b1a:	4630      	mov	r0, r6
1a001b1c:	f000 fbfe 	bl	1a00231c <__malloc_unlock>
1a001b20:	f104 000b 	add.w	r0, r4, #11
1a001b24:	1d23      	adds	r3, r4, #4
1a001b26:	f020 0007 	bic.w	r0, r0, #7
1a001b2a:	1ac2      	subs	r2, r0, r3
1a001b2c:	d0cc      	beq.n	1a001ac8 <_malloc_r+0x20>
1a001b2e:	1a1b      	subs	r3, r3, r0
1a001b30:	50a3      	str	r3, [r4, r2]
1a001b32:	e7c9      	b.n	1a001ac8 <_malloc_r+0x20>
1a001b34:	4622      	mov	r2, r4
1a001b36:	6864      	ldr	r4, [r4, #4]
1a001b38:	e7cc      	b.n	1a001ad4 <_malloc_r+0x2c>
1a001b3a:	1cc4      	adds	r4, r0, #3
1a001b3c:	f024 0403 	bic.w	r4, r4, #3
1a001b40:	42a0      	cmp	r0, r4
1a001b42:	d0e3      	beq.n	1a001b0c <_malloc_r+0x64>
1a001b44:	1a21      	subs	r1, r4, r0
1a001b46:	4630      	mov	r0, r6
1a001b48:	f7fe fdc6 	bl	1a0006d8 <_sbrk_r>
1a001b4c:	3001      	adds	r0, #1
1a001b4e:	d1dd      	bne.n	1a001b0c <_malloc_r+0x64>
1a001b50:	e7cf      	b.n	1a001af2 <_malloc_r+0x4a>
1a001b52:	bf00      	nop
1a001b54:	100000b8 	.word	0x100000b8
1a001b58:	100000bc 	.word	0x100000bc

1a001b5c <__sfputc_r>:
1a001b5c:	6893      	ldr	r3, [r2, #8]
1a001b5e:	3b01      	subs	r3, #1
1a001b60:	2b00      	cmp	r3, #0
1a001b62:	b410      	push	{r4}
1a001b64:	6093      	str	r3, [r2, #8]
1a001b66:	da08      	bge.n	1a001b7a <__sfputc_r+0x1e>
1a001b68:	6994      	ldr	r4, [r2, #24]
1a001b6a:	42a3      	cmp	r3, r4
1a001b6c:	db01      	blt.n	1a001b72 <__sfputc_r+0x16>
1a001b6e:	290a      	cmp	r1, #10
1a001b70:	d103      	bne.n	1a001b7a <__sfputc_r+0x1e>
1a001b72:	f85d 4b04 	ldr.w	r4, [sp], #4
1a001b76:	f000 b98f 	b.w	1a001e98 <__swbuf_r>
1a001b7a:	6813      	ldr	r3, [r2, #0]
1a001b7c:	1c58      	adds	r0, r3, #1
1a001b7e:	6010      	str	r0, [r2, #0]
1a001b80:	7019      	strb	r1, [r3, #0]
1a001b82:	4608      	mov	r0, r1
1a001b84:	f85d 4b04 	ldr.w	r4, [sp], #4
1a001b88:	4770      	bx	lr

1a001b8a <__sfputs_r>:
1a001b8a:	b5f8      	push	{r3, r4, r5, r6, r7, lr}
1a001b8c:	4606      	mov	r6, r0
1a001b8e:	460f      	mov	r7, r1
1a001b90:	4614      	mov	r4, r2
1a001b92:	18d5      	adds	r5, r2, r3
1a001b94:	42ac      	cmp	r4, r5
1a001b96:	d101      	bne.n	1a001b9c <__sfputs_r+0x12>
1a001b98:	2000      	movs	r0, #0
1a001b9a:	e007      	b.n	1a001bac <__sfputs_r+0x22>
1a001b9c:	f814 1b01 	ldrb.w	r1, [r4], #1
1a001ba0:	463a      	mov	r2, r7
1a001ba2:	4630      	mov	r0, r6
1a001ba4:	f7ff ffda 	bl	1a001b5c <__sfputc_r>
1a001ba8:	1c43      	adds	r3, r0, #1
1a001baa:	d1f3      	bne.n	1a001b94 <__sfputs_r+0xa>
1a001bac:	bdf8      	pop	{r3, r4, r5, r6, r7, pc}
	...

1a001bb0 <_vfiprintf_r>:
1a001bb0:	e92d 4ff0 	stmdb	sp!, {r4, r5, r6, r7, r8, r9, sl, fp, lr}
1a001bb4:	460d      	mov	r5, r1
1a001bb6:	b09d      	sub	sp, #116	; 0x74
1a001bb8:	4614      	mov	r4, r2
1a001bba:	4698      	mov	r8, r3
1a001bbc:	4606      	mov	r6, r0
1a001bbe:	b118      	cbz	r0, 1a001bc8 <_vfiprintf_r+0x18>
1a001bc0:	6983      	ldr	r3, [r0, #24]
1a001bc2:	b90b      	cbnz	r3, 1a001bc8 <_vfiprintf_r+0x18>
1a001bc4:	f7ff fed0 	bl	1a001968 <__sinit>
1a001bc8:	4b89      	ldr	r3, [pc, #548]	; (1a001df0 <_vfiprintf_r+0x240>)
1a001bca:	429d      	cmp	r5, r3
1a001bcc:	d11b      	bne.n	1a001c06 <_vfiprintf_r+0x56>
1a001bce:	6875      	ldr	r5, [r6, #4]
1a001bd0:	6e6b      	ldr	r3, [r5, #100]	; 0x64
1a001bd2:	07d9      	lsls	r1, r3, #31
1a001bd4:	d405      	bmi.n	1a001be2 <_vfiprintf_r+0x32>
1a001bd6:	89ab      	ldrh	r3, [r5, #12]
1a001bd8:	059a      	lsls	r2, r3, #22
1a001bda:	d402      	bmi.n	1a001be2 <_vfiprintf_r+0x32>
1a001bdc:	6da8      	ldr	r0, [r5, #88]	; 0x58
1a001bde:	f7ff ff61 	bl	1a001aa4 <__retarget_lock_acquire_recursive>
1a001be2:	89ab      	ldrh	r3, [r5, #12]
1a001be4:	071b      	lsls	r3, r3, #28
1a001be6:	d501      	bpl.n	1a001bec <_vfiprintf_r+0x3c>
1a001be8:	692b      	ldr	r3, [r5, #16]
1a001bea:	b9eb      	cbnz	r3, 1a001c28 <_vfiprintf_r+0x78>
1a001bec:	4629      	mov	r1, r5
1a001bee:	4630      	mov	r0, r6
1a001bf0:	f000 f9a4 	bl	1a001f3c <__swsetup_r>
1a001bf4:	b1c0      	cbz	r0, 1a001c28 <_vfiprintf_r+0x78>
1a001bf6:	6e6b      	ldr	r3, [r5, #100]	; 0x64
1a001bf8:	07dc      	lsls	r4, r3, #31
1a001bfa:	d50e      	bpl.n	1a001c1a <_vfiprintf_r+0x6a>
1a001bfc:	f04f 30ff 	mov.w	r0, #4294967295	; 0xffffffff
1a001c00:	b01d      	add	sp, #116	; 0x74
1a001c02:	e8bd 8ff0 	ldmia.w	sp!, {r4, r5, r6, r7, r8, r9, sl, fp, pc}
1a001c06:	4b7b      	ldr	r3, [pc, #492]	; (1a001df4 <_vfiprintf_r+0x244>)
1a001c08:	429d      	cmp	r5, r3
1a001c0a:	d101      	bne.n	1a001c10 <_vfiprintf_r+0x60>
1a001c0c:	68b5      	ldr	r5, [r6, #8]
1a001c0e:	e7df      	b.n	1a001bd0 <_vfiprintf_r+0x20>
1a001c10:	4b79      	ldr	r3, [pc, #484]	; (1a001df8 <_vfiprintf_r+0x248>)
1a001c12:	429d      	cmp	r5, r3
1a001c14:	bf08      	it	eq
1a001c16:	68f5      	ldreq	r5, [r6, #12]
1a001c18:	e7da      	b.n	1a001bd0 <_vfiprintf_r+0x20>
1a001c1a:	89ab      	ldrh	r3, [r5, #12]
1a001c1c:	0598      	lsls	r0, r3, #22
1a001c1e:	d4ed      	bmi.n	1a001bfc <_vfiprintf_r+0x4c>
1a001c20:	6da8      	ldr	r0, [r5, #88]	; 0x58
1a001c22:	f7ff ff40 	bl	1a001aa6 <__retarget_lock_release_recursive>
1a001c26:	e7e9      	b.n	1a001bfc <_vfiprintf_r+0x4c>
1a001c28:	2300      	movs	r3, #0
1a001c2a:	9309      	str	r3, [sp, #36]	; 0x24
1a001c2c:	2320      	movs	r3, #32
1a001c2e:	f88d 3029 	strb.w	r3, [sp, #41]	; 0x29
1a001c32:	f8cd 800c 	str.w	r8, [sp, #12]
1a001c36:	2330      	movs	r3, #48	; 0x30
1a001c38:	f8df 81c0 	ldr.w	r8, [pc, #448]	; 1a001dfc <_vfiprintf_r+0x24c>
1a001c3c:	f88d 302a 	strb.w	r3, [sp, #42]	; 0x2a
1a001c40:	f04f 0901 	mov.w	r9, #1
1a001c44:	4623      	mov	r3, r4
1a001c46:	469a      	mov	sl, r3
1a001c48:	f813 2b01 	ldrb.w	r2, [r3], #1
1a001c4c:	b10a      	cbz	r2, 1a001c52 <_vfiprintf_r+0xa2>
1a001c4e:	2a25      	cmp	r2, #37	; 0x25
1a001c50:	d1f9      	bne.n	1a001c46 <_vfiprintf_r+0x96>
1a001c52:	ebba 0b04 	subs.w	fp, sl, r4
1a001c56:	d00b      	beq.n	1a001c70 <_vfiprintf_r+0xc0>
1a001c58:	465b      	mov	r3, fp
1a001c5a:	4622      	mov	r2, r4
1a001c5c:	4629      	mov	r1, r5
1a001c5e:	4630      	mov	r0, r6
1a001c60:	f7ff ff93 	bl	1a001b8a <__sfputs_r>
1a001c64:	3001      	adds	r0, #1
1a001c66:	f000 80aa 	beq.w	1a001dbe <_vfiprintf_r+0x20e>
1a001c6a:	9a09      	ldr	r2, [sp, #36]	; 0x24
1a001c6c:	445a      	add	r2, fp
1a001c6e:	9209      	str	r2, [sp, #36]	; 0x24
1a001c70:	f89a 3000 	ldrb.w	r3, [sl]
1a001c74:	2b00      	cmp	r3, #0
1a001c76:	f000 80a2 	beq.w	1a001dbe <_vfiprintf_r+0x20e>
1a001c7a:	2300      	movs	r3, #0
1a001c7c:	f04f 32ff 	mov.w	r2, #4294967295	; 0xffffffff
1a001c80:	e9cd 2305 	strd	r2, r3, [sp, #20]
1a001c84:	f10a 0a01 	add.w	sl, sl, #1
1a001c88:	9304      	str	r3, [sp, #16]
1a001c8a:	9307      	str	r3, [sp, #28]
1a001c8c:	f88d 3053 	strb.w	r3, [sp, #83]	; 0x53
1a001c90:	931a      	str	r3, [sp, #104]	; 0x68
1a001c92:	4654      	mov	r4, sl
1a001c94:	2205      	movs	r2, #5
1a001c96:	f814 1b01 	ldrb.w	r1, [r4], #1
1a001c9a:	4858      	ldr	r0, [pc, #352]	; (1a001dfc <_vfiprintf_r+0x24c>)
1a001c9c:	f000 fae8 	bl	1a002270 <memchr>
1a001ca0:	9a04      	ldr	r2, [sp, #16]
1a001ca2:	b9d8      	cbnz	r0, 1a001cdc <_vfiprintf_r+0x12c>
1a001ca4:	06d1      	lsls	r1, r2, #27
1a001ca6:	bf44      	itt	mi
1a001ca8:	2320      	movmi	r3, #32
1a001caa:	f88d 3053 	strbmi.w	r3, [sp, #83]	; 0x53
1a001cae:	0713      	lsls	r3, r2, #28
1a001cb0:	bf44      	itt	mi
1a001cb2:	232b      	movmi	r3, #43	; 0x2b
1a001cb4:	f88d 3053 	strbmi.w	r3, [sp, #83]	; 0x53
1a001cb8:	f89a 3000 	ldrb.w	r3, [sl]
1a001cbc:	2b2a      	cmp	r3, #42	; 0x2a
1a001cbe:	d015      	beq.n	1a001cec <_vfiprintf_r+0x13c>
1a001cc0:	9a07      	ldr	r2, [sp, #28]
1a001cc2:	4654      	mov	r4, sl
1a001cc4:	2000      	movs	r0, #0
1a001cc6:	f04f 0c0a 	mov.w	ip, #10
1a001cca:	4621      	mov	r1, r4
1a001ccc:	f811 3b01 	ldrb.w	r3, [r1], #1
1a001cd0:	3b30      	subs	r3, #48	; 0x30
1a001cd2:	2b09      	cmp	r3, #9
1a001cd4:	d94e      	bls.n	1a001d74 <_vfiprintf_r+0x1c4>
1a001cd6:	b1b0      	cbz	r0, 1a001d06 <_vfiprintf_r+0x156>
1a001cd8:	9207      	str	r2, [sp, #28]
1a001cda:	e014      	b.n	1a001d06 <_vfiprintf_r+0x156>
1a001cdc:	eba0 0308 	sub.w	r3, r0, r8
1a001ce0:	fa09 f303 	lsl.w	r3, r9, r3
1a001ce4:	4313      	orrs	r3, r2
1a001ce6:	9304      	str	r3, [sp, #16]
1a001ce8:	46a2      	mov	sl, r4
1a001cea:	e7d2      	b.n	1a001c92 <_vfiprintf_r+0xe2>
1a001cec:	9b03      	ldr	r3, [sp, #12]
1a001cee:	1d19      	adds	r1, r3, #4
1a001cf0:	681b      	ldr	r3, [r3, #0]
1a001cf2:	9103      	str	r1, [sp, #12]
1a001cf4:	2b00      	cmp	r3, #0
1a001cf6:	bfbb      	ittet	lt
1a001cf8:	425b      	neglt	r3, r3
1a001cfa:	f042 0202 	orrlt.w	r2, r2, #2
1a001cfe:	9307      	strge	r3, [sp, #28]
1a001d00:	9307      	strlt	r3, [sp, #28]
1a001d02:	bfb8      	it	lt
1a001d04:	9204      	strlt	r2, [sp, #16]
1a001d06:	7823      	ldrb	r3, [r4, #0]
1a001d08:	2b2e      	cmp	r3, #46	; 0x2e
1a001d0a:	d10c      	bne.n	1a001d26 <_vfiprintf_r+0x176>
1a001d0c:	7863      	ldrb	r3, [r4, #1]
1a001d0e:	2b2a      	cmp	r3, #42	; 0x2a
1a001d10:	d135      	bne.n	1a001d7e <_vfiprintf_r+0x1ce>
1a001d12:	9b03      	ldr	r3, [sp, #12]
1a001d14:	1d1a      	adds	r2, r3, #4
1a001d16:	681b      	ldr	r3, [r3, #0]
1a001d18:	9203      	str	r2, [sp, #12]
1a001d1a:	2b00      	cmp	r3, #0
1a001d1c:	bfb8      	it	lt
1a001d1e:	f04f 33ff 	movlt.w	r3, #4294967295	; 0xffffffff
1a001d22:	3402      	adds	r4, #2
1a001d24:	9305      	str	r3, [sp, #20]
1a001d26:	f8df a0e4 	ldr.w	sl, [pc, #228]	; 1a001e0c <_vfiprintf_r+0x25c>
1a001d2a:	7821      	ldrb	r1, [r4, #0]
1a001d2c:	2203      	movs	r2, #3
1a001d2e:	4650      	mov	r0, sl
1a001d30:	f000 fa9e 	bl	1a002270 <memchr>
1a001d34:	b140      	cbz	r0, 1a001d48 <_vfiprintf_r+0x198>
1a001d36:	2340      	movs	r3, #64	; 0x40
1a001d38:	eba0 000a 	sub.w	r0, r0, sl
1a001d3c:	fa03 f000 	lsl.w	r0, r3, r0
1a001d40:	9b04      	ldr	r3, [sp, #16]
1a001d42:	4303      	orrs	r3, r0
1a001d44:	3401      	adds	r4, #1
1a001d46:	9304      	str	r3, [sp, #16]
1a001d48:	f814 1b01 	ldrb.w	r1, [r4], #1
1a001d4c:	482c      	ldr	r0, [pc, #176]	; (1a001e00 <_vfiprintf_r+0x250>)
1a001d4e:	f88d 1028 	strb.w	r1, [sp, #40]	; 0x28
1a001d52:	2206      	movs	r2, #6
1a001d54:	f000 fa8c 	bl	1a002270 <memchr>
1a001d58:	2800      	cmp	r0, #0
1a001d5a:	d03f      	beq.n	1a001ddc <_vfiprintf_r+0x22c>
1a001d5c:	4b29      	ldr	r3, [pc, #164]	; (1a001e04 <_vfiprintf_r+0x254>)
1a001d5e:	bb1b      	cbnz	r3, 1a001da8 <_vfiprintf_r+0x1f8>
1a001d60:	9b03      	ldr	r3, [sp, #12]
1a001d62:	3307      	adds	r3, #7
1a001d64:	f023 0307 	bic.w	r3, r3, #7
1a001d68:	3308      	adds	r3, #8
1a001d6a:	9303      	str	r3, [sp, #12]
1a001d6c:	9b09      	ldr	r3, [sp, #36]	; 0x24
1a001d6e:	443b      	add	r3, r7
1a001d70:	9309      	str	r3, [sp, #36]	; 0x24
1a001d72:	e767      	b.n	1a001c44 <_vfiprintf_r+0x94>
1a001d74:	fb0c 3202 	mla	r2, ip, r2, r3
1a001d78:	460c      	mov	r4, r1
1a001d7a:	2001      	movs	r0, #1
1a001d7c:	e7a5      	b.n	1a001cca <_vfiprintf_r+0x11a>
1a001d7e:	2300      	movs	r3, #0
1a001d80:	3401      	adds	r4, #1
1a001d82:	9305      	str	r3, [sp, #20]
1a001d84:	4619      	mov	r1, r3
1a001d86:	f04f 0c0a 	mov.w	ip, #10
1a001d8a:	4620      	mov	r0, r4
1a001d8c:	f810 2b01 	ldrb.w	r2, [r0], #1
1a001d90:	3a30      	subs	r2, #48	; 0x30
1a001d92:	2a09      	cmp	r2, #9
1a001d94:	d903      	bls.n	1a001d9e <_vfiprintf_r+0x1ee>
1a001d96:	2b00      	cmp	r3, #0
1a001d98:	d0c5      	beq.n	1a001d26 <_vfiprintf_r+0x176>
1a001d9a:	9105      	str	r1, [sp, #20]
1a001d9c:	e7c3      	b.n	1a001d26 <_vfiprintf_r+0x176>
1a001d9e:	fb0c 2101 	mla	r1, ip, r1, r2
1a001da2:	4604      	mov	r4, r0
1a001da4:	2301      	movs	r3, #1
1a001da6:	e7f0      	b.n	1a001d8a <_vfiprintf_r+0x1da>
1a001da8:	ab03      	add	r3, sp, #12
1a001daa:	9300      	str	r3, [sp, #0]
1a001dac:	462a      	mov	r2, r5
1a001dae:	4b16      	ldr	r3, [pc, #88]	; (1a001e08 <_vfiprintf_r+0x258>)
1a001db0:	a904      	add	r1, sp, #16
1a001db2:	4630      	mov	r0, r6
1a001db4:	f3af 8000 	nop.w
1a001db8:	4607      	mov	r7, r0
1a001dba:	1c78      	adds	r0, r7, #1
1a001dbc:	d1d6      	bne.n	1a001d6c <_vfiprintf_r+0x1bc>
1a001dbe:	6e6b      	ldr	r3, [r5, #100]	; 0x64
1a001dc0:	07d9      	lsls	r1, r3, #31
1a001dc2:	d405      	bmi.n	1a001dd0 <_vfiprintf_r+0x220>
1a001dc4:	89ab      	ldrh	r3, [r5, #12]
1a001dc6:	059a      	lsls	r2, r3, #22
1a001dc8:	d402      	bmi.n	1a001dd0 <_vfiprintf_r+0x220>
1a001dca:	6da8      	ldr	r0, [r5, #88]	; 0x58
1a001dcc:	f7ff fe6b 	bl	1a001aa6 <__retarget_lock_release_recursive>
1a001dd0:	89ab      	ldrh	r3, [r5, #12]
1a001dd2:	065b      	lsls	r3, r3, #25
1a001dd4:	f53f af12 	bmi.w	1a001bfc <_vfiprintf_r+0x4c>
1a001dd8:	9809      	ldr	r0, [sp, #36]	; 0x24
1a001dda:	e711      	b.n	1a001c00 <_vfiprintf_r+0x50>
1a001ddc:	ab03      	add	r3, sp, #12
1a001dde:	9300      	str	r3, [sp, #0]
1a001de0:	462a      	mov	r2, r5
1a001de2:	4b09      	ldr	r3, [pc, #36]	; (1a001e08 <_vfiprintf_r+0x258>)
1a001de4:	a904      	add	r1, sp, #16
1a001de6:	4630      	mov	r0, r6
1a001de8:	f000 fb58 	bl	1a00249c <_printf_i>
1a001dec:	e7e4      	b.n	1a001db8 <_vfiprintf_r+0x208>
1a001dee:	bf00      	nop
1a001df0:	1a0028d0 	.word	0x1a0028d0
1a001df4:	1a0028f0 	.word	0x1a0028f0
1a001df8:	1a0028b0 	.word	0x1a0028b0
1a001dfc:	1a002914 	.word	0x1a002914
1a001e00:	1a00291e 	.word	0x1a00291e
1a001e04:	00000000 	.word	0x00000000
1a001e08:	1a001b8b 	.word	0x1a001b8b
1a001e0c:	1a00291a 	.word	0x1a00291a

1a001e10 <__sread>:
1a001e10:	b510      	push	{r4, lr}
1a001e12:	460c      	mov	r4, r1
1a001e14:	f9b1 100e 	ldrsh.w	r1, [r1, #14]
1a001e18:	f7fe fc22 	bl	1a000660 <_read_r>
1a001e1c:	2800      	cmp	r0, #0
1a001e1e:	bfab      	itete	ge
1a001e20:	6d63      	ldrge	r3, [r4, #84]	; 0x54
1a001e22:	89a3      	ldrhlt	r3, [r4, #12]
1a001e24:	181b      	addge	r3, r3, r0
1a001e26:	f423 5380 	biclt.w	r3, r3, #4096	; 0x1000
1a001e2a:	bfac      	ite	ge
1a001e2c:	6563      	strge	r3, [r4, #84]	; 0x54
1a001e2e:	81a3      	strhlt	r3, [r4, #12]
1a001e30:	bd10      	pop	{r4, pc}

1a001e32 <__swrite>:
1a001e32:	e92d 41f0 	stmdb	sp!, {r4, r5, r6, r7, r8, lr}
1a001e36:	461f      	mov	r7, r3
1a001e38:	898b      	ldrh	r3, [r1, #12]
1a001e3a:	05db      	lsls	r3, r3, #23
1a001e3c:	4605      	mov	r5, r0
1a001e3e:	460c      	mov	r4, r1
1a001e40:	4616      	mov	r6, r2
1a001e42:	d505      	bpl.n	1a001e50 <__swrite+0x1e>
1a001e44:	f9b1 100e 	ldrsh.w	r1, [r1, #14]
1a001e48:	2302      	movs	r3, #2
1a001e4a:	2200      	movs	r2, #0
1a001e4c:	f7fe fc03 	bl	1a000656 <_lseek_r>
1a001e50:	89a3      	ldrh	r3, [r4, #12]
1a001e52:	f9b4 100e 	ldrsh.w	r1, [r4, #14]
1a001e56:	f423 5380 	bic.w	r3, r3, #4096	; 0x1000
1a001e5a:	81a3      	strh	r3, [r4, #12]
1a001e5c:	4632      	mov	r2, r6
1a001e5e:	463b      	mov	r3, r7
1a001e60:	4628      	mov	r0, r5
1a001e62:	e8bd 41f0 	ldmia.w	sp!, {r4, r5, r6, r7, r8, lr}
1a001e66:	f7fe bc22 	b.w	1a0006ae <_write_r>

1a001e6a <__sseek>:
1a001e6a:	b510      	push	{r4, lr}
1a001e6c:	460c      	mov	r4, r1
1a001e6e:	f9b1 100e 	ldrsh.w	r1, [r1, #14]
1a001e72:	f7fe fbf0 	bl	1a000656 <_lseek_r>
1a001e76:	1c43      	adds	r3, r0, #1
1a001e78:	89a3      	ldrh	r3, [r4, #12]
1a001e7a:	bf15      	itete	ne
1a001e7c:	6560      	strne	r0, [r4, #84]	; 0x54
1a001e7e:	f423 5380 	biceq.w	r3, r3, #4096	; 0x1000
1a001e82:	f443 5380 	orrne.w	r3, r3, #4096	; 0x1000
1a001e86:	81a3      	strheq	r3, [r4, #12]
1a001e88:	bf18      	it	ne
1a001e8a:	81a3      	strhne	r3, [r4, #12]
1a001e8c:	bd10      	pop	{r4, pc}

1a001e8e <__sclose>:
1a001e8e:	f9b1 100e 	ldrsh.w	r1, [r1, #14]
1a001e92:	f7fe bbcd 	b.w	1a000630 <_close_r>
	...

1a001e98 <__swbuf_r>:
1a001e98:	b5f8      	push	{r3, r4, r5, r6, r7, lr}
1a001e9a:	460e      	mov	r6, r1
1a001e9c:	4614      	mov	r4, r2
1a001e9e:	4605      	mov	r5, r0
1a001ea0:	b118      	cbz	r0, 1a001eaa <__swbuf_r+0x12>
1a001ea2:	6983      	ldr	r3, [r0, #24]
1a001ea4:	b90b      	cbnz	r3, 1a001eaa <__swbuf_r+0x12>
1a001ea6:	f7ff fd5f 	bl	1a001968 <__sinit>
1a001eaa:	4b21      	ldr	r3, [pc, #132]	; (1a001f30 <__swbuf_r+0x98>)
1a001eac:	429c      	cmp	r4, r3
1a001eae:	d12b      	bne.n	1a001f08 <__swbuf_r+0x70>
1a001eb0:	686c      	ldr	r4, [r5, #4]
1a001eb2:	69a3      	ldr	r3, [r4, #24]
1a001eb4:	60a3      	str	r3, [r4, #8]
1a001eb6:	89a3      	ldrh	r3, [r4, #12]
1a001eb8:	071a      	lsls	r2, r3, #28
1a001eba:	d52f      	bpl.n	1a001f1c <__swbuf_r+0x84>
1a001ebc:	6923      	ldr	r3, [r4, #16]
1a001ebe:	b36b      	cbz	r3, 1a001f1c <__swbuf_r+0x84>
1a001ec0:	6923      	ldr	r3, [r4, #16]
1a001ec2:	6820      	ldr	r0, [r4, #0]
1a001ec4:	1ac0      	subs	r0, r0, r3
1a001ec6:	6963      	ldr	r3, [r4, #20]
1a001ec8:	b2f6      	uxtb	r6, r6
1a001eca:	4283      	cmp	r3, r0
1a001ecc:	4637      	mov	r7, r6
1a001ece:	dc04      	bgt.n	1a001eda <__swbuf_r+0x42>
1a001ed0:	4621      	mov	r1, r4
1a001ed2:	4628      	mov	r0, r5
1a001ed4:	f000 f926 	bl	1a002124 <_fflush_r>
1a001ed8:	bb30      	cbnz	r0, 1a001f28 <__swbuf_r+0x90>
1a001eda:	68a3      	ldr	r3, [r4, #8]
1a001edc:	3b01      	subs	r3, #1
1a001ede:	60a3      	str	r3, [r4, #8]
1a001ee0:	6823      	ldr	r3, [r4, #0]
1a001ee2:	1c5a      	adds	r2, r3, #1
1a001ee4:	6022      	str	r2, [r4, #0]
1a001ee6:	701e      	strb	r6, [r3, #0]
1a001ee8:	6963      	ldr	r3, [r4, #20]
1a001eea:	3001      	adds	r0, #1
1a001eec:	4283      	cmp	r3, r0
1a001eee:	d004      	beq.n	1a001efa <__swbuf_r+0x62>
1a001ef0:	89a3      	ldrh	r3, [r4, #12]
1a001ef2:	07db      	lsls	r3, r3, #31
1a001ef4:	d506      	bpl.n	1a001f04 <__swbuf_r+0x6c>
1a001ef6:	2e0a      	cmp	r6, #10
1a001ef8:	d104      	bne.n	1a001f04 <__swbuf_r+0x6c>
1a001efa:	4621      	mov	r1, r4
1a001efc:	4628      	mov	r0, r5
1a001efe:	f000 f911 	bl	1a002124 <_fflush_r>
1a001f02:	b988      	cbnz	r0, 1a001f28 <__swbuf_r+0x90>
1a001f04:	4638      	mov	r0, r7
1a001f06:	bdf8      	pop	{r3, r4, r5, r6, r7, pc}
1a001f08:	4b0a      	ldr	r3, [pc, #40]	; (1a001f34 <__swbuf_r+0x9c>)
1a001f0a:	429c      	cmp	r4, r3
1a001f0c:	d101      	bne.n	1a001f12 <__swbuf_r+0x7a>
1a001f0e:	68ac      	ldr	r4, [r5, #8]
1a001f10:	e7cf      	b.n	1a001eb2 <__swbuf_r+0x1a>
1a001f12:	4b09      	ldr	r3, [pc, #36]	; (1a001f38 <__swbuf_r+0xa0>)
1a001f14:	429c      	cmp	r4, r3
1a001f16:	bf08      	it	eq
1a001f18:	68ec      	ldreq	r4, [r5, #12]
1a001f1a:	e7ca      	b.n	1a001eb2 <__swbuf_r+0x1a>
1a001f1c:	4621      	mov	r1, r4
1a001f1e:	4628      	mov	r0, r5
1a001f20:	f000 f80c 	bl	1a001f3c <__swsetup_r>
1a001f24:	2800      	cmp	r0, #0
1a001f26:	d0cb      	beq.n	1a001ec0 <__swbuf_r+0x28>
1a001f28:	f04f 37ff 	mov.w	r7, #4294967295	; 0xffffffff
1a001f2c:	e7ea      	b.n	1a001f04 <__swbuf_r+0x6c>
1a001f2e:	bf00      	nop
1a001f30:	1a0028d0 	.word	0x1a0028d0
1a001f34:	1a0028f0 	.word	0x1a0028f0
1a001f38:	1a0028b0 	.word	0x1a0028b0

1a001f3c <__swsetup_r>:
1a001f3c:	4b32      	ldr	r3, [pc, #200]	; (1a002008 <__swsetup_r+0xcc>)
1a001f3e:	b570      	push	{r4, r5, r6, lr}
1a001f40:	681d      	ldr	r5, [r3, #0]
1a001f42:	4606      	mov	r6, r0
1a001f44:	460c      	mov	r4, r1
1a001f46:	b125      	cbz	r5, 1a001f52 <__swsetup_r+0x16>
1a001f48:	69ab      	ldr	r3, [r5, #24]
1a001f4a:	b913      	cbnz	r3, 1a001f52 <__swsetup_r+0x16>
1a001f4c:	4628      	mov	r0, r5
1a001f4e:	f7ff fd0b 	bl	1a001968 <__sinit>
1a001f52:	4b2e      	ldr	r3, [pc, #184]	; (1a00200c <__swsetup_r+0xd0>)
1a001f54:	429c      	cmp	r4, r3
1a001f56:	d10f      	bne.n	1a001f78 <__swsetup_r+0x3c>
1a001f58:	686c      	ldr	r4, [r5, #4]
1a001f5a:	89a3      	ldrh	r3, [r4, #12]
1a001f5c:	f9b4 200c 	ldrsh.w	r2, [r4, #12]
1a001f60:	0719      	lsls	r1, r3, #28
1a001f62:	d42c      	bmi.n	1a001fbe <__swsetup_r+0x82>
1a001f64:	06dd      	lsls	r5, r3, #27
1a001f66:	d411      	bmi.n	1a001f8c <__swsetup_r+0x50>
1a001f68:	2309      	movs	r3, #9
1a001f6a:	6033      	str	r3, [r6, #0]
1a001f6c:	f042 0340 	orr.w	r3, r2, #64	; 0x40
1a001f70:	81a3      	strh	r3, [r4, #12]
1a001f72:	f04f 30ff 	mov.w	r0, #4294967295	; 0xffffffff
1a001f76:	e03e      	b.n	1a001ff6 <__swsetup_r+0xba>
1a001f78:	4b25      	ldr	r3, [pc, #148]	; (1a002010 <__swsetup_r+0xd4>)
1a001f7a:	429c      	cmp	r4, r3
1a001f7c:	d101      	bne.n	1a001f82 <__swsetup_r+0x46>
1a001f7e:	68ac      	ldr	r4, [r5, #8]
1a001f80:	e7eb      	b.n	1a001f5a <__swsetup_r+0x1e>
1a001f82:	4b24      	ldr	r3, [pc, #144]	; (1a002014 <__swsetup_r+0xd8>)
1a001f84:	429c      	cmp	r4, r3
1a001f86:	bf08      	it	eq
1a001f88:	68ec      	ldreq	r4, [r5, #12]
1a001f8a:	e7e6      	b.n	1a001f5a <__swsetup_r+0x1e>
1a001f8c:	0758      	lsls	r0, r3, #29
1a001f8e:	d512      	bpl.n	1a001fb6 <__swsetup_r+0x7a>
1a001f90:	6b61      	ldr	r1, [r4, #52]	; 0x34
1a001f92:	b141      	cbz	r1, 1a001fa6 <__swsetup_r+0x6a>
1a001f94:	f104 0344 	add.w	r3, r4, #68	; 0x44
1a001f98:	4299      	cmp	r1, r3
1a001f9a:	d002      	beq.n	1a001fa2 <__swsetup_r+0x66>
1a001f9c:	4630      	mov	r0, r6
1a001f9e:	f000 f9c3 	bl	1a002328 <_free_r>
1a001fa2:	2300      	movs	r3, #0
1a001fa4:	6363      	str	r3, [r4, #52]	; 0x34
1a001fa6:	89a3      	ldrh	r3, [r4, #12]
1a001fa8:	f023 0324 	bic.w	r3, r3, #36	; 0x24
1a001fac:	81a3      	strh	r3, [r4, #12]
1a001fae:	2300      	movs	r3, #0
1a001fb0:	6063      	str	r3, [r4, #4]
1a001fb2:	6923      	ldr	r3, [r4, #16]
1a001fb4:	6023      	str	r3, [r4, #0]
1a001fb6:	89a3      	ldrh	r3, [r4, #12]
1a001fb8:	f043 0308 	orr.w	r3, r3, #8
1a001fbc:	81a3      	strh	r3, [r4, #12]
1a001fbe:	6923      	ldr	r3, [r4, #16]
1a001fc0:	b94b      	cbnz	r3, 1a001fd6 <__swsetup_r+0x9a>
1a001fc2:	89a3      	ldrh	r3, [r4, #12]
1a001fc4:	f403 7320 	and.w	r3, r3, #640	; 0x280
1a001fc8:	f5b3 7f00 	cmp.w	r3, #512	; 0x200
1a001fcc:	d003      	beq.n	1a001fd6 <__swsetup_r+0x9a>
1a001fce:	4621      	mov	r1, r4
1a001fd0:	4630      	mov	r0, r6
1a001fd2:	f000 f909 	bl	1a0021e8 <__smakebuf_r>
1a001fd6:	89a0      	ldrh	r0, [r4, #12]
1a001fd8:	f9b4 200c 	ldrsh.w	r2, [r4, #12]
1a001fdc:	f010 0301 	ands.w	r3, r0, #1
1a001fe0:	d00a      	beq.n	1a001ff8 <__swsetup_r+0xbc>
1a001fe2:	2300      	movs	r3, #0
1a001fe4:	60a3      	str	r3, [r4, #8]
1a001fe6:	6963      	ldr	r3, [r4, #20]
1a001fe8:	425b      	negs	r3, r3
1a001fea:	61a3      	str	r3, [r4, #24]
1a001fec:	6923      	ldr	r3, [r4, #16]
1a001fee:	b943      	cbnz	r3, 1a002002 <__swsetup_r+0xc6>
1a001ff0:	f010 0080 	ands.w	r0, r0, #128	; 0x80
1a001ff4:	d1ba      	bne.n	1a001f6c <__swsetup_r+0x30>
1a001ff6:	bd70      	pop	{r4, r5, r6, pc}
1a001ff8:	0781      	lsls	r1, r0, #30
1a001ffa:	bf58      	it	pl
1a001ffc:	6963      	ldrpl	r3, [r4, #20]
1a001ffe:	60a3      	str	r3, [r4, #8]
1a002000:	e7f4      	b.n	1a001fec <__swsetup_r+0xb0>
1a002002:	2000      	movs	r0, #0
1a002004:	e7f7      	b.n	1a001ff6 <__swsetup_r+0xba>
1a002006:	bf00      	nop
1a002008:	10000038 	.word	0x10000038
1a00200c:	1a0028d0 	.word	0x1a0028d0
1a002010:	1a0028f0 	.word	0x1a0028f0
1a002014:	1a0028b0 	.word	0x1a0028b0

1a002018 <__sflush_r>:
1a002018:	898a      	ldrh	r2, [r1, #12]
1a00201a:	e92d 41f0 	stmdb	sp!, {r4, r5, r6, r7, r8, lr}
1a00201e:	4605      	mov	r5, r0
1a002020:	0710      	lsls	r0, r2, #28
1a002022:	460c      	mov	r4, r1
1a002024:	d458      	bmi.n	1a0020d8 <__sflush_r+0xc0>
1a002026:	684b      	ldr	r3, [r1, #4]
1a002028:	2b00      	cmp	r3, #0
1a00202a:	dc05      	bgt.n	1a002038 <__sflush_r+0x20>
1a00202c:	6c0b      	ldr	r3, [r1, #64]	; 0x40
1a00202e:	2b00      	cmp	r3, #0
1a002030:	dc02      	bgt.n	1a002038 <__sflush_r+0x20>
1a002032:	2000      	movs	r0, #0
1a002034:	e8bd 81f0 	ldmia.w	sp!, {r4, r5, r6, r7, r8, pc}
1a002038:	6ae6      	ldr	r6, [r4, #44]	; 0x2c
1a00203a:	2e00      	cmp	r6, #0
1a00203c:	d0f9      	beq.n	1a002032 <__sflush_r+0x1a>
1a00203e:	2300      	movs	r3, #0
1a002040:	f412 5280 	ands.w	r2, r2, #4096	; 0x1000
1a002044:	682f      	ldr	r7, [r5, #0]
1a002046:	602b      	str	r3, [r5, #0]
1a002048:	d032      	beq.n	1a0020b0 <__sflush_r+0x98>
1a00204a:	6d60      	ldr	r0, [r4, #84]	; 0x54
1a00204c:	89a3      	ldrh	r3, [r4, #12]
1a00204e:	075a      	lsls	r2, r3, #29
1a002050:	d505      	bpl.n	1a00205e <__sflush_r+0x46>
1a002052:	6863      	ldr	r3, [r4, #4]
1a002054:	1ac0      	subs	r0, r0, r3
1a002056:	6b63      	ldr	r3, [r4, #52]	; 0x34
1a002058:	b10b      	cbz	r3, 1a00205e <__sflush_r+0x46>
1a00205a:	6c23      	ldr	r3, [r4, #64]	; 0x40
1a00205c:	1ac0      	subs	r0, r0, r3
1a00205e:	2300      	movs	r3, #0
1a002060:	4602      	mov	r2, r0
1a002062:	6ae6      	ldr	r6, [r4, #44]	; 0x2c
1a002064:	6a21      	ldr	r1, [r4, #32]
1a002066:	4628      	mov	r0, r5
1a002068:	47b0      	blx	r6
1a00206a:	1c43      	adds	r3, r0, #1
1a00206c:	89a3      	ldrh	r3, [r4, #12]
1a00206e:	d106      	bne.n	1a00207e <__sflush_r+0x66>
1a002070:	6829      	ldr	r1, [r5, #0]
1a002072:	291d      	cmp	r1, #29
1a002074:	d82c      	bhi.n	1a0020d0 <__sflush_r+0xb8>
1a002076:	4a2a      	ldr	r2, [pc, #168]	; (1a002120 <__sflush_r+0x108>)
1a002078:	40ca      	lsrs	r2, r1
1a00207a:	07d6      	lsls	r6, r2, #31
1a00207c:	d528      	bpl.n	1a0020d0 <__sflush_r+0xb8>
1a00207e:	2200      	movs	r2, #0
1a002080:	6062      	str	r2, [r4, #4]
1a002082:	04d9      	lsls	r1, r3, #19
1a002084:	6922      	ldr	r2, [r4, #16]
1a002086:	6022      	str	r2, [r4, #0]
1a002088:	d504      	bpl.n	1a002094 <__sflush_r+0x7c>
1a00208a:	1c42      	adds	r2, r0, #1
1a00208c:	d101      	bne.n	1a002092 <__sflush_r+0x7a>
1a00208e:	682b      	ldr	r3, [r5, #0]
1a002090:	b903      	cbnz	r3, 1a002094 <__sflush_r+0x7c>
1a002092:	6560      	str	r0, [r4, #84]	; 0x54
1a002094:	6b61      	ldr	r1, [r4, #52]	; 0x34
1a002096:	602f      	str	r7, [r5, #0]
1a002098:	2900      	cmp	r1, #0
1a00209a:	d0ca      	beq.n	1a002032 <__sflush_r+0x1a>
1a00209c:	f104 0344 	add.w	r3, r4, #68	; 0x44
1a0020a0:	4299      	cmp	r1, r3
1a0020a2:	d002      	beq.n	1a0020aa <__sflush_r+0x92>
1a0020a4:	4628      	mov	r0, r5
1a0020a6:	f000 f93f 	bl	1a002328 <_free_r>
1a0020aa:	2000      	movs	r0, #0
1a0020ac:	6360      	str	r0, [r4, #52]	; 0x34
1a0020ae:	e7c1      	b.n	1a002034 <__sflush_r+0x1c>
1a0020b0:	6a21      	ldr	r1, [r4, #32]
1a0020b2:	2301      	movs	r3, #1
1a0020b4:	4628      	mov	r0, r5
1a0020b6:	47b0      	blx	r6
1a0020b8:	1c41      	adds	r1, r0, #1
1a0020ba:	d1c7      	bne.n	1a00204c <__sflush_r+0x34>
1a0020bc:	682b      	ldr	r3, [r5, #0]
1a0020be:	2b00      	cmp	r3, #0
1a0020c0:	d0c4      	beq.n	1a00204c <__sflush_r+0x34>
1a0020c2:	2b1d      	cmp	r3, #29
1a0020c4:	d001      	beq.n	1a0020ca <__sflush_r+0xb2>
1a0020c6:	2b16      	cmp	r3, #22
1a0020c8:	d101      	bne.n	1a0020ce <__sflush_r+0xb6>
1a0020ca:	602f      	str	r7, [r5, #0]
1a0020cc:	e7b1      	b.n	1a002032 <__sflush_r+0x1a>
1a0020ce:	89a3      	ldrh	r3, [r4, #12]
1a0020d0:	f043 0340 	orr.w	r3, r3, #64	; 0x40
1a0020d4:	81a3      	strh	r3, [r4, #12]
1a0020d6:	e7ad      	b.n	1a002034 <__sflush_r+0x1c>
1a0020d8:	690f      	ldr	r7, [r1, #16]
1a0020da:	2f00      	cmp	r7, #0
1a0020dc:	d0a9      	beq.n	1a002032 <__sflush_r+0x1a>
1a0020de:	0793      	lsls	r3, r2, #30
1a0020e0:	680e      	ldr	r6, [r1, #0]
1a0020e2:	bf08      	it	eq
1a0020e4:	694b      	ldreq	r3, [r1, #20]
1a0020e6:	600f      	str	r7, [r1, #0]
1a0020e8:	bf18      	it	ne
1a0020ea:	2300      	movne	r3, #0
1a0020ec:	eba6 0807 	sub.w	r8, r6, r7
1a0020f0:	608b      	str	r3, [r1, #8]
1a0020f2:	f1b8 0f00 	cmp.w	r8, #0
1a0020f6:	dd9c      	ble.n	1a002032 <__sflush_r+0x1a>
1a0020f8:	6a21      	ldr	r1, [r4, #32]
1a0020fa:	6aa6      	ldr	r6, [r4, #40]	; 0x28
1a0020fc:	4643      	mov	r3, r8
1a0020fe:	463a      	mov	r2, r7
1a002100:	4628      	mov	r0, r5
1a002102:	47b0      	blx	r6
1a002104:	2800      	cmp	r0, #0
1a002106:	dc06      	bgt.n	1a002116 <__sflush_r+0xfe>
1a002108:	89a3      	ldrh	r3, [r4, #12]
1a00210a:	f043 0340 	orr.w	r3, r3, #64	; 0x40
1a00210e:	81a3      	strh	r3, [r4, #12]
1a002110:	f04f 30ff 	mov.w	r0, #4294967295	; 0xffffffff
1a002114:	e78e      	b.n	1a002034 <__sflush_r+0x1c>
1a002116:	4407      	add	r7, r0
1a002118:	eba8 0800 	sub.w	r8, r8, r0
1a00211c:	e7e9      	b.n	1a0020f2 <__sflush_r+0xda>
1a00211e:	bf00      	nop
1a002120:	20400001 	.word	0x20400001

1a002124 <_fflush_r>:
1a002124:	b538      	push	{r3, r4, r5, lr}
1a002126:	690b      	ldr	r3, [r1, #16]
1a002128:	4605      	mov	r5, r0
1a00212a:	460c      	mov	r4, r1
1a00212c:	b913      	cbnz	r3, 1a002134 <_fflush_r+0x10>
1a00212e:	2500      	movs	r5, #0
1a002130:	4628      	mov	r0, r5
1a002132:	bd38      	pop	{r3, r4, r5, pc}
1a002134:	b118      	cbz	r0, 1a00213e <_fflush_r+0x1a>
1a002136:	6983      	ldr	r3, [r0, #24]
1a002138:	b90b      	cbnz	r3, 1a00213e <_fflush_r+0x1a>
1a00213a:	f7ff fc15 	bl	1a001968 <__sinit>
1a00213e:	4b14      	ldr	r3, [pc, #80]	; (1a002190 <_fflush_r+0x6c>)
1a002140:	429c      	cmp	r4, r3
1a002142:	d11b      	bne.n	1a00217c <_fflush_r+0x58>
1a002144:	686c      	ldr	r4, [r5, #4]
1a002146:	f9b4 300c 	ldrsh.w	r3, [r4, #12]
1a00214a:	2b00      	cmp	r3, #0
1a00214c:	d0ef      	beq.n	1a00212e <_fflush_r+0xa>
1a00214e:	6e62      	ldr	r2, [r4, #100]	; 0x64
1a002150:	07d0      	lsls	r0, r2, #31
1a002152:	d404      	bmi.n	1a00215e <_fflush_r+0x3a>
1a002154:	0599      	lsls	r1, r3, #22
1a002156:	d402      	bmi.n	1a00215e <_fflush_r+0x3a>
1a002158:	6da0      	ldr	r0, [r4, #88]	; 0x58
1a00215a:	f7ff fca3 	bl	1a001aa4 <__retarget_lock_acquire_recursive>
1a00215e:	4628      	mov	r0, r5
1a002160:	4621      	mov	r1, r4
1a002162:	f7ff ff59 	bl	1a002018 <__sflush_r>
1a002166:	6e63      	ldr	r3, [r4, #100]	; 0x64
1a002168:	07da      	lsls	r2, r3, #31
1a00216a:	4605      	mov	r5, r0
1a00216c:	d4e0      	bmi.n	1a002130 <_fflush_r+0xc>
1a00216e:	89a3      	ldrh	r3, [r4, #12]
1a002170:	059b      	lsls	r3, r3, #22
1a002172:	d4dd      	bmi.n	1a002130 <_fflush_r+0xc>
1a002174:	6da0      	ldr	r0, [r4, #88]	; 0x58
1a002176:	f7ff fc96 	bl	1a001aa6 <__retarget_lock_release_recursive>
1a00217a:	e7d9      	b.n	1a002130 <_fflush_r+0xc>
1a00217c:	4b05      	ldr	r3, [pc, #20]	; (1a002194 <_fflush_r+0x70>)
1a00217e:	429c      	cmp	r4, r3
1a002180:	d101      	bne.n	1a002186 <_fflush_r+0x62>
1a002182:	68ac      	ldr	r4, [r5, #8]
1a002184:	e7df      	b.n	1a002146 <_fflush_r+0x22>
1a002186:	4b04      	ldr	r3, [pc, #16]	; (1a002198 <_fflush_r+0x74>)
1a002188:	429c      	cmp	r4, r3
1a00218a:	bf08      	it	eq
1a00218c:	68ec      	ldreq	r4, [r5, #12]
1a00218e:	e7da      	b.n	1a002146 <_fflush_r+0x22>
1a002190:	1a0028d0 	.word	0x1a0028d0
1a002194:	1a0028f0 	.word	0x1a0028f0
1a002198:	1a0028b0 	.word	0x1a0028b0

1a00219c <__swhatbuf_r>:
1a00219c:	b570      	push	{r4, r5, r6, lr}
1a00219e:	460e      	mov	r6, r1
1a0021a0:	f9b1 100e 	ldrsh.w	r1, [r1, #14]
1a0021a4:	2900      	cmp	r1, #0
1a0021a6:	b096      	sub	sp, #88	; 0x58
1a0021a8:	4614      	mov	r4, r2
1a0021aa:	461d      	mov	r5, r3
1a0021ac:	da08      	bge.n	1a0021c0 <__swhatbuf_r+0x24>
1a0021ae:	f9b6 300c 	ldrsh.w	r3, [r6, #12]
1a0021b2:	2200      	movs	r2, #0
1a0021b4:	602a      	str	r2, [r5, #0]
1a0021b6:	061a      	lsls	r2, r3, #24
1a0021b8:	d410      	bmi.n	1a0021dc <__swhatbuf_r+0x40>
1a0021ba:	f44f 6380 	mov.w	r3, #1024	; 0x400
1a0021be:	e00e      	b.n	1a0021de <__swhatbuf_r+0x42>
1a0021c0:	466a      	mov	r2, sp
1a0021c2:	f7fe fa3a 	bl	1a00063a <_fstat_r>
1a0021c6:	2800      	cmp	r0, #0
1a0021c8:	dbf1      	blt.n	1a0021ae <__swhatbuf_r+0x12>
1a0021ca:	9a01      	ldr	r2, [sp, #4]
1a0021cc:	f402 4270 	and.w	r2, r2, #61440	; 0xf000
1a0021d0:	f5a2 5300 	sub.w	r3, r2, #8192	; 0x2000
1a0021d4:	425a      	negs	r2, r3
1a0021d6:	415a      	adcs	r2, r3
1a0021d8:	602a      	str	r2, [r5, #0]
1a0021da:	e7ee      	b.n	1a0021ba <__swhatbuf_r+0x1e>
1a0021dc:	2340      	movs	r3, #64	; 0x40
1a0021de:	2000      	movs	r0, #0
1a0021e0:	6023      	str	r3, [r4, #0]
1a0021e2:	b016      	add	sp, #88	; 0x58
1a0021e4:	bd70      	pop	{r4, r5, r6, pc}
	...

1a0021e8 <__smakebuf_r>:
1a0021e8:	898b      	ldrh	r3, [r1, #12]
1a0021ea:	b573      	push	{r0, r1, r4, r5, r6, lr}
1a0021ec:	079d      	lsls	r5, r3, #30
1a0021ee:	4606      	mov	r6, r0
1a0021f0:	460c      	mov	r4, r1
1a0021f2:	d507      	bpl.n	1a002204 <__smakebuf_r+0x1c>
1a0021f4:	f104 0347 	add.w	r3, r4, #71	; 0x47
1a0021f8:	6023      	str	r3, [r4, #0]
1a0021fa:	6123      	str	r3, [r4, #16]
1a0021fc:	2301      	movs	r3, #1
1a0021fe:	6163      	str	r3, [r4, #20]
1a002200:	b002      	add	sp, #8
1a002202:	bd70      	pop	{r4, r5, r6, pc}
1a002204:	ab01      	add	r3, sp, #4
1a002206:	466a      	mov	r2, sp
1a002208:	f7ff ffc8 	bl	1a00219c <__swhatbuf_r>
1a00220c:	9900      	ldr	r1, [sp, #0]
1a00220e:	4605      	mov	r5, r0
1a002210:	4630      	mov	r0, r6
1a002212:	f7ff fc49 	bl	1a001aa8 <_malloc_r>
1a002216:	b948      	cbnz	r0, 1a00222c <__smakebuf_r+0x44>
1a002218:	f9b4 300c 	ldrsh.w	r3, [r4, #12]
1a00221c:	059a      	lsls	r2, r3, #22
1a00221e:	d4ef      	bmi.n	1a002200 <__smakebuf_r+0x18>
1a002220:	f023 0303 	bic.w	r3, r3, #3
1a002224:	f043 0302 	orr.w	r3, r3, #2
1a002228:	81a3      	strh	r3, [r4, #12]
1a00222a:	e7e3      	b.n	1a0021f4 <__smakebuf_r+0xc>
1a00222c:	4b0d      	ldr	r3, [pc, #52]	; (1a002264 <__smakebuf_r+0x7c>)
1a00222e:	62b3      	str	r3, [r6, #40]	; 0x28
1a002230:	89a3      	ldrh	r3, [r4, #12]
1a002232:	6020      	str	r0, [r4, #0]
1a002234:	f043 0380 	orr.w	r3, r3, #128	; 0x80
1a002238:	81a3      	strh	r3, [r4, #12]
1a00223a:	9b00      	ldr	r3, [sp, #0]
1a00223c:	6163      	str	r3, [r4, #20]
1a00223e:	9b01      	ldr	r3, [sp, #4]
1a002240:	6120      	str	r0, [r4, #16]
1a002242:	b15b      	cbz	r3, 1a00225c <__smakebuf_r+0x74>
1a002244:	f9b4 100e 	ldrsh.w	r1, [r4, #14]
1a002248:	4630      	mov	r0, r6
1a00224a:	f7fe f9fb 	bl	1a000644 <_isatty_r>
1a00224e:	b128      	cbz	r0, 1a00225c <__smakebuf_r+0x74>
1a002250:	89a3      	ldrh	r3, [r4, #12]
1a002252:	f023 0303 	bic.w	r3, r3, #3
1a002256:	f043 0301 	orr.w	r3, r3, #1
1a00225a:	81a3      	strh	r3, [r4, #12]
1a00225c:	89a0      	ldrh	r0, [r4, #12]
1a00225e:	4305      	orrs	r5, r0
1a002260:	81a5      	strh	r5, [r4, #12]
1a002262:	e7cd      	b.n	1a002200 <__smakebuf_r+0x18>
1a002264:	1a001901 	.word	0x1a001901
	...

1a002270 <memchr>:
1a002270:	f001 01ff 	and.w	r1, r1, #255	; 0xff
1a002274:	2a10      	cmp	r2, #16
1a002276:	db2b      	blt.n	1a0022d0 <memchr+0x60>
1a002278:	f010 0f07 	tst.w	r0, #7
1a00227c:	d008      	beq.n	1a002290 <memchr+0x20>
1a00227e:	f810 3b01 	ldrb.w	r3, [r0], #1
1a002282:	3a01      	subs	r2, #1
1a002284:	428b      	cmp	r3, r1
1a002286:	d02d      	beq.n	1a0022e4 <memchr+0x74>
1a002288:	f010 0f07 	tst.w	r0, #7
1a00228c:	b342      	cbz	r2, 1a0022e0 <memchr+0x70>
1a00228e:	d1f6      	bne.n	1a00227e <memchr+0xe>
1a002290:	b4f0      	push	{r4, r5, r6, r7}
1a002292:	ea41 2101 	orr.w	r1, r1, r1, lsl #8
1a002296:	ea41 4101 	orr.w	r1, r1, r1, lsl #16
1a00229a:	f022 0407 	bic.w	r4, r2, #7
1a00229e:	f07f 0700 	mvns.w	r7, #0
1a0022a2:	2300      	movs	r3, #0
1a0022a4:	e8f0 5602 	ldrd	r5, r6, [r0], #8
1a0022a8:	3c08      	subs	r4, #8
1a0022aa:	ea85 0501 	eor.w	r5, r5, r1
1a0022ae:	ea86 0601 	eor.w	r6, r6, r1
1a0022b2:	fa85 f547 	uadd8	r5, r5, r7
1a0022b6:	faa3 f587 	sel	r5, r3, r7
1a0022ba:	fa86 f647 	uadd8	r6, r6, r7
1a0022be:	faa5 f687 	sel	r6, r5, r7
1a0022c2:	b98e      	cbnz	r6, 1a0022e8 <memchr+0x78>
1a0022c4:	d1ee      	bne.n	1a0022a4 <memchr+0x34>
1a0022c6:	bcf0      	pop	{r4, r5, r6, r7}
1a0022c8:	f001 01ff 	and.w	r1, r1, #255	; 0xff
1a0022cc:	f002 0207 	and.w	r2, r2, #7
1a0022d0:	b132      	cbz	r2, 1a0022e0 <memchr+0x70>
1a0022d2:	f810 3b01 	ldrb.w	r3, [r0], #1
1a0022d6:	3a01      	subs	r2, #1
1a0022d8:	ea83 0301 	eor.w	r3, r3, r1
1a0022dc:	b113      	cbz	r3, 1a0022e4 <memchr+0x74>
1a0022de:	d1f8      	bne.n	1a0022d2 <memchr+0x62>
1a0022e0:	2000      	movs	r0, #0
1a0022e2:	4770      	bx	lr
1a0022e4:	3801      	subs	r0, #1
1a0022e6:	4770      	bx	lr
1a0022e8:	2d00      	cmp	r5, #0
1a0022ea:	bf06      	itte	eq
1a0022ec:	4635      	moveq	r5, r6
1a0022ee:	3803      	subeq	r0, #3
1a0022f0:	3807      	subne	r0, #7
1a0022f2:	f015 0f01 	tst.w	r5, #1
1a0022f6:	d107      	bne.n	1a002308 <memchr+0x98>
1a0022f8:	3001      	adds	r0, #1
1a0022fa:	f415 7f80 	tst.w	r5, #256	; 0x100
1a0022fe:	bf02      	ittt	eq
1a002300:	3001      	addeq	r0, #1
1a002302:	f415 3fc0 	tsteq.w	r5, #98304	; 0x18000
1a002306:	3001      	addeq	r0, #1
1a002308:	bcf0      	pop	{r4, r5, r6, r7}
1a00230a:	3801      	subs	r0, #1
1a00230c:	4770      	bx	lr
1a00230e:	bf00      	nop

1a002310 <__malloc_lock>:
1a002310:	4801      	ldr	r0, [pc, #4]	; (1a002318 <__malloc_lock+0x8>)
1a002312:	f7ff bbc7 	b.w	1a001aa4 <__retarget_lock_acquire_recursive>
1a002316:	bf00      	nop
1a002318:	100000b4 	.word	0x100000b4

1a00231c <__malloc_unlock>:
1a00231c:	4801      	ldr	r0, [pc, #4]	; (1a002324 <__malloc_unlock+0x8>)
1a00231e:	f7ff bbc2 	b.w	1a001aa6 <__retarget_lock_release_recursive>
1a002322:	bf00      	nop
1a002324:	100000b4 	.word	0x100000b4

1a002328 <_free_r>:
1a002328:	b537      	push	{r0, r1, r2, r4, r5, lr}
1a00232a:	2900      	cmp	r1, #0
1a00232c:	d044      	beq.n	1a0023b8 <_free_r+0x90>
1a00232e:	f851 3c04 	ldr.w	r3, [r1, #-4]
1a002332:	9001      	str	r0, [sp, #4]
1a002334:	2b00      	cmp	r3, #0
1a002336:	f1a1 0404 	sub.w	r4, r1, #4
1a00233a:	bfb8      	it	lt
1a00233c:	18e4      	addlt	r4, r4, r3
1a00233e:	f7ff ffe7 	bl	1a002310 <__malloc_lock>
1a002342:	4a1e      	ldr	r2, [pc, #120]	; (1a0023bc <_free_r+0x94>)
1a002344:	9801      	ldr	r0, [sp, #4]
1a002346:	6813      	ldr	r3, [r2, #0]
1a002348:	b933      	cbnz	r3, 1a002358 <_free_r+0x30>
1a00234a:	6063      	str	r3, [r4, #4]
1a00234c:	6014      	str	r4, [r2, #0]
1a00234e:	b003      	add	sp, #12
1a002350:	e8bd 4030 	ldmia.w	sp!, {r4, r5, lr}
1a002354:	f7ff bfe2 	b.w	1a00231c <__malloc_unlock>
1a002358:	42a3      	cmp	r3, r4
1a00235a:	d908      	bls.n	1a00236e <_free_r+0x46>
1a00235c:	6825      	ldr	r5, [r4, #0]
1a00235e:	1961      	adds	r1, r4, r5
1a002360:	428b      	cmp	r3, r1
1a002362:	bf01      	itttt	eq
1a002364:	6819      	ldreq	r1, [r3, #0]
1a002366:	685b      	ldreq	r3, [r3, #4]
1a002368:	1949      	addeq	r1, r1, r5
1a00236a:	6021      	streq	r1, [r4, #0]
1a00236c:	e7ed      	b.n	1a00234a <_free_r+0x22>
1a00236e:	461a      	mov	r2, r3
1a002370:	685b      	ldr	r3, [r3, #4]
1a002372:	b10b      	cbz	r3, 1a002378 <_free_r+0x50>
1a002374:	42a3      	cmp	r3, r4
1a002376:	d9fa      	bls.n	1a00236e <_free_r+0x46>
1a002378:	6811      	ldr	r1, [r2, #0]
1a00237a:	1855      	adds	r5, r2, r1
1a00237c:	42a5      	cmp	r5, r4
1a00237e:	d10b      	bne.n	1a002398 <_free_r+0x70>
1a002380:	6824      	ldr	r4, [r4, #0]
1a002382:	4421      	add	r1, r4
1a002384:	1854      	adds	r4, r2, r1
1a002386:	42a3      	cmp	r3, r4
1a002388:	6011      	str	r1, [r2, #0]
1a00238a:	d1e0      	bne.n	1a00234e <_free_r+0x26>
1a00238c:	681c      	ldr	r4, [r3, #0]
1a00238e:	685b      	ldr	r3, [r3, #4]
1a002390:	6053      	str	r3, [r2, #4]
1a002392:	4421      	add	r1, r4
1a002394:	6011      	str	r1, [r2, #0]
1a002396:	e7da      	b.n	1a00234e <_free_r+0x26>
1a002398:	d902      	bls.n	1a0023a0 <_free_r+0x78>
1a00239a:	230c      	movs	r3, #12
1a00239c:	6003      	str	r3, [r0, #0]
1a00239e:	e7d6      	b.n	1a00234e <_free_r+0x26>
1a0023a0:	6825      	ldr	r5, [r4, #0]
1a0023a2:	1961      	adds	r1, r4, r5
1a0023a4:	428b      	cmp	r3, r1
1a0023a6:	bf04      	itt	eq
1a0023a8:	6819      	ldreq	r1, [r3, #0]
1a0023aa:	685b      	ldreq	r3, [r3, #4]
1a0023ac:	6063      	str	r3, [r4, #4]
1a0023ae:	bf04      	itt	eq
1a0023b0:	1949      	addeq	r1, r1, r5
1a0023b2:	6021      	streq	r1, [r4, #0]
1a0023b4:	6054      	str	r4, [r2, #4]
1a0023b6:	e7ca      	b.n	1a00234e <_free_r+0x26>
1a0023b8:	b003      	add	sp, #12
1a0023ba:	bd30      	pop	{r4, r5, pc}
1a0023bc:	100000b8 	.word	0x100000b8

1a0023c0 <_printf_common>:
1a0023c0:	e92d 47f0 	stmdb	sp!, {r4, r5, r6, r7, r8, r9, sl, lr}
1a0023c4:	4616      	mov	r6, r2
1a0023c6:	4699      	mov	r9, r3
1a0023c8:	688a      	ldr	r2, [r1, #8]
1a0023ca:	690b      	ldr	r3, [r1, #16]
1a0023cc:	f8dd 8020 	ldr.w	r8, [sp, #32]
1a0023d0:	4293      	cmp	r3, r2
1a0023d2:	bfb8      	it	lt
1a0023d4:	4613      	movlt	r3, r2
1a0023d6:	6033      	str	r3, [r6, #0]
1a0023d8:	f891 2043 	ldrb.w	r2, [r1, #67]	; 0x43
1a0023dc:	4607      	mov	r7, r0
1a0023de:	460c      	mov	r4, r1
1a0023e0:	b10a      	cbz	r2, 1a0023e6 <_printf_common+0x26>
1a0023e2:	3301      	adds	r3, #1
1a0023e4:	6033      	str	r3, [r6, #0]
1a0023e6:	6823      	ldr	r3, [r4, #0]
1a0023e8:	0699      	lsls	r1, r3, #26
1a0023ea:	bf42      	ittt	mi
1a0023ec:	6833      	ldrmi	r3, [r6, #0]
1a0023ee:	3302      	addmi	r3, #2
1a0023f0:	6033      	strmi	r3, [r6, #0]
1a0023f2:	6825      	ldr	r5, [r4, #0]
1a0023f4:	f015 0506 	ands.w	r5, r5, #6
1a0023f8:	d106      	bne.n	1a002408 <_printf_common+0x48>
1a0023fa:	f104 0a19 	add.w	sl, r4, #25
1a0023fe:	68e3      	ldr	r3, [r4, #12]
1a002400:	6832      	ldr	r2, [r6, #0]
1a002402:	1a9b      	subs	r3, r3, r2
1a002404:	42ab      	cmp	r3, r5
1a002406:	dc26      	bgt.n	1a002456 <_printf_common+0x96>
1a002408:	f894 2043 	ldrb.w	r2, [r4, #67]	; 0x43
1a00240c:	1e13      	subs	r3, r2, #0
1a00240e:	6822      	ldr	r2, [r4, #0]
1a002410:	bf18      	it	ne
1a002412:	2301      	movne	r3, #1
1a002414:	0692      	lsls	r2, r2, #26
1a002416:	d42b      	bmi.n	1a002470 <_printf_common+0xb0>
1a002418:	f104 0243 	add.w	r2, r4, #67	; 0x43
1a00241c:	4649      	mov	r1, r9
1a00241e:	4638      	mov	r0, r7
1a002420:	47c0      	blx	r8
1a002422:	3001      	adds	r0, #1
1a002424:	d01e      	beq.n	1a002464 <_printf_common+0xa4>
1a002426:	6823      	ldr	r3, [r4, #0]
1a002428:	68e5      	ldr	r5, [r4, #12]
1a00242a:	6832      	ldr	r2, [r6, #0]
1a00242c:	f003 0306 	and.w	r3, r3, #6
1a002430:	2b04      	cmp	r3, #4
1a002432:	bf08      	it	eq
1a002434:	1aad      	subeq	r5, r5, r2
1a002436:	68a3      	ldr	r3, [r4, #8]
1a002438:	6922      	ldr	r2, [r4, #16]
1a00243a:	bf0c      	ite	eq
1a00243c:	ea25 75e5 	biceq.w	r5, r5, r5, asr #31
1a002440:	2500      	movne	r5, #0
1a002442:	4293      	cmp	r3, r2
1a002444:	bfc4      	itt	gt
1a002446:	1a9b      	subgt	r3, r3, r2
1a002448:	18ed      	addgt	r5, r5, r3
1a00244a:	2600      	movs	r6, #0
1a00244c:	341a      	adds	r4, #26
1a00244e:	42b5      	cmp	r5, r6
1a002450:	d11a      	bne.n	1a002488 <_printf_common+0xc8>
1a002452:	2000      	movs	r0, #0
1a002454:	e008      	b.n	1a002468 <_printf_common+0xa8>
1a002456:	2301      	movs	r3, #1
1a002458:	4652      	mov	r2, sl
1a00245a:	4649      	mov	r1, r9
1a00245c:	4638      	mov	r0, r7
1a00245e:	47c0      	blx	r8
1a002460:	3001      	adds	r0, #1
1a002462:	d103      	bne.n	1a00246c <_printf_common+0xac>
1a002464:	f04f 30ff 	mov.w	r0, #4294967295	; 0xffffffff
1a002468:	e8bd 87f0 	ldmia.w	sp!, {r4, r5, r6, r7, r8, r9, sl, pc}
1a00246c:	3501      	adds	r5, #1
1a00246e:	e7c6      	b.n	1a0023fe <_printf_common+0x3e>
1a002470:	18e1      	adds	r1, r4, r3
1a002472:	1c5a      	adds	r2, r3, #1
1a002474:	2030      	movs	r0, #48	; 0x30
1a002476:	f881 0043 	strb.w	r0, [r1, #67]	; 0x43
1a00247a:	4422      	add	r2, r4
1a00247c:	f894 1045 	ldrb.w	r1, [r4, #69]	; 0x45
1a002480:	f882 1043 	strb.w	r1, [r2, #67]	; 0x43
1a002484:	3302      	adds	r3, #2
1a002486:	e7c7      	b.n	1a002418 <_printf_common+0x58>
1a002488:	2301      	movs	r3, #1
1a00248a:	4622      	mov	r2, r4
1a00248c:	4649      	mov	r1, r9
1a00248e:	4638      	mov	r0, r7
1a002490:	47c0      	blx	r8
1a002492:	3001      	adds	r0, #1
1a002494:	d0e6      	beq.n	1a002464 <_printf_common+0xa4>
1a002496:	3601      	adds	r6, #1
1a002498:	e7d9      	b.n	1a00244e <_printf_common+0x8e>
	...

1a00249c <_printf_i>:
1a00249c:	e92d 47ff 	stmdb	sp!, {r0, r1, r2, r3, r4, r5, r6, r7, r8, r9, sl, lr}
1a0024a0:	7e0f      	ldrb	r7, [r1, #24]
1a0024a2:	9d0c      	ldr	r5, [sp, #48]	; 0x30
1a0024a4:	2f78      	cmp	r7, #120	; 0x78
1a0024a6:	4691      	mov	r9, r2
1a0024a8:	4680      	mov	r8, r0
1a0024aa:	460c      	mov	r4, r1
1a0024ac:	469a      	mov	sl, r3
1a0024ae:	f101 0243 	add.w	r2, r1, #67	; 0x43
1a0024b2:	d807      	bhi.n	1a0024c4 <_printf_i+0x28>
1a0024b4:	2f62      	cmp	r7, #98	; 0x62
1a0024b6:	d80a      	bhi.n	1a0024ce <_printf_i+0x32>
1a0024b8:	2f00      	cmp	r7, #0
1a0024ba:	f000 80d8 	beq.w	1a00266e <_printf_i+0x1d2>
1a0024be:	2f58      	cmp	r7, #88	; 0x58
1a0024c0:	f000 80a3 	beq.w	1a00260a <_printf_i+0x16e>
1a0024c4:	f104 0542 	add.w	r5, r4, #66	; 0x42
1a0024c8:	f884 7042 	strb.w	r7, [r4, #66]	; 0x42
1a0024cc:	e03a      	b.n	1a002544 <_printf_i+0xa8>
1a0024ce:	f1a7 0363 	sub.w	r3, r7, #99	; 0x63
1a0024d2:	2b15      	cmp	r3, #21
1a0024d4:	d8f6      	bhi.n	1a0024c4 <_printf_i+0x28>
1a0024d6:	a101      	add	r1, pc, #4	; (adr r1, 1a0024dc <_printf_i+0x40>)
1a0024d8:	f851 f023 	ldr.w	pc, [r1, r3, lsl #2]
1a0024dc:	1a002535 	.word	0x1a002535
1a0024e0:	1a002549 	.word	0x1a002549
1a0024e4:	1a0024c5 	.word	0x1a0024c5
1a0024e8:	1a0024c5 	.word	0x1a0024c5
1a0024ec:	1a0024c5 	.word	0x1a0024c5
1a0024f0:	1a0024c5 	.word	0x1a0024c5
1a0024f4:	1a002549 	.word	0x1a002549
1a0024f8:	1a0024c5 	.word	0x1a0024c5
1a0024fc:	1a0024c5 	.word	0x1a0024c5
1a002500:	1a0024c5 	.word	0x1a0024c5
1a002504:	1a0024c5 	.word	0x1a0024c5
1a002508:	1a002655 	.word	0x1a002655
1a00250c:	1a002579 	.word	0x1a002579
1a002510:	1a002637 	.word	0x1a002637
1a002514:	1a0024c5 	.word	0x1a0024c5
1a002518:	1a0024c5 	.word	0x1a0024c5
1a00251c:	1a002677 	.word	0x1a002677
1a002520:	1a0024c5 	.word	0x1a0024c5
1a002524:	1a002579 	.word	0x1a002579
1a002528:	1a0024c5 	.word	0x1a0024c5
1a00252c:	1a0024c5 	.word	0x1a0024c5
1a002530:	1a00263f 	.word	0x1a00263f
1a002534:	682b      	ldr	r3, [r5, #0]
1a002536:	1d1a      	adds	r2, r3, #4
1a002538:	681b      	ldr	r3, [r3, #0]
1a00253a:	602a      	str	r2, [r5, #0]
1a00253c:	f104 0542 	add.w	r5, r4, #66	; 0x42
1a002540:	f884 3042 	strb.w	r3, [r4, #66]	; 0x42
1a002544:	2301      	movs	r3, #1
1a002546:	e0a3      	b.n	1a002690 <_printf_i+0x1f4>
1a002548:	6820      	ldr	r0, [r4, #0]
1a00254a:	6829      	ldr	r1, [r5, #0]
1a00254c:	0606      	lsls	r6, r0, #24
1a00254e:	f101 0304 	add.w	r3, r1, #4
1a002552:	d50a      	bpl.n	1a00256a <_printf_i+0xce>
1a002554:	680e      	ldr	r6, [r1, #0]
1a002556:	602b      	str	r3, [r5, #0]
1a002558:	2e00      	cmp	r6, #0
1a00255a:	da03      	bge.n	1a002564 <_printf_i+0xc8>
1a00255c:	232d      	movs	r3, #45	; 0x2d
1a00255e:	4276      	negs	r6, r6
1a002560:	f884 3043 	strb.w	r3, [r4, #67]	; 0x43
1a002564:	485e      	ldr	r0, [pc, #376]	; (1a0026e0 <_printf_i+0x244>)
1a002566:	230a      	movs	r3, #10
1a002568:	e019      	b.n	1a00259e <_printf_i+0x102>
1a00256a:	680e      	ldr	r6, [r1, #0]
1a00256c:	602b      	str	r3, [r5, #0]
1a00256e:	f010 0f40 	tst.w	r0, #64	; 0x40
1a002572:	bf18      	it	ne
1a002574:	b236      	sxthne	r6, r6
1a002576:	e7ef      	b.n	1a002558 <_printf_i+0xbc>
1a002578:	682b      	ldr	r3, [r5, #0]
1a00257a:	6820      	ldr	r0, [r4, #0]
1a00257c:	1d19      	adds	r1, r3, #4
1a00257e:	6029      	str	r1, [r5, #0]
1a002580:	0601      	lsls	r1, r0, #24
1a002582:	d501      	bpl.n	1a002588 <_printf_i+0xec>
1a002584:	681e      	ldr	r6, [r3, #0]
1a002586:	e002      	b.n	1a00258e <_printf_i+0xf2>
1a002588:	0646      	lsls	r6, r0, #25
1a00258a:	d5fb      	bpl.n	1a002584 <_printf_i+0xe8>
1a00258c:	881e      	ldrh	r6, [r3, #0]
1a00258e:	4854      	ldr	r0, [pc, #336]	; (1a0026e0 <_printf_i+0x244>)
1a002590:	2f6f      	cmp	r7, #111	; 0x6f
1a002592:	bf0c      	ite	eq
1a002594:	2308      	moveq	r3, #8
1a002596:	230a      	movne	r3, #10
1a002598:	2100      	movs	r1, #0
1a00259a:	f884 1043 	strb.w	r1, [r4, #67]	; 0x43
1a00259e:	6865      	ldr	r5, [r4, #4]
1a0025a0:	60a5      	str	r5, [r4, #8]
1a0025a2:	2d00      	cmp	r5, #0
1a0025a4:	bfa2      	ittt	ge
1a0025a6:	6821      	ldrge	r1, [r4, #0]
1a0025a8:	f021 0104 	bicge.w	r1, r1, #4
1a0025ac:	6021      	strge	r1, [r4, #0]
1a0025ae:	b90e      	cbnz	r6, 1a0025b4 <_printf_i+0x118>
1a0025b0:	2d00      	cmp	r5, #0
1a0025b2:	d04d      	beq.n	1a002650 <_printf_i+0x1b4>
1a0025b4:	4615      	mov	r5, r2
1a0025b6:	fbb6 f1f3 	udiv	r1, r6, r3
1a0025ba:	fb03 6711 	mls	r7, r3, r1, r6
1a0025be:	5dc7      	ldrb	r7, [r0, r7]
1a0025c0:	f805 7d01 	strb.w	r7, [r5, #-1]!
1a0025c4:	4637      	mov	r7, r6
1a0025c6:	42bb      	cmp	r3, r7
1a0025c8:	460e      	mov	r6, r1
1a0025ca:	d9f4      	bls.n	1a0025b6 <_printf_i+0x11a>
1a0025cc:	2b08      	cmp	r3, #8
1a0025ce:	d10b      	bne.n	1a0025e8 <_printf_i+0x14c>
1a0025d0:	6823      	ldr	r3, [r4, #0]
1a0025d2:	07de      	lsls	r6, r3, #31
1a0025d4:	d508      	bpl.n	1a0025e8 <_printf_i+0x14c>
1a0025d6:	6923      	ldr	r3, [r4, #16]
1a0025d8:	6861      	ldr	r1, [r4, #4]
1a0025da:	4299      	cmp	r1, r3
1a0025dc:	bfde      	ittt	le
1a0025de:	2330      	movle	r3, #48	; 0x30
1a0025e0:	f805 3c01 	strble.w	r3, [r5, #-1]
1a0025e4:	f105 35ff 	addle.w	r5, r5, #4294967295	; 0xffffffff
1a0025e8:	1b52      	subs	r2, r2, r5
1a0025ea:	6122      	str	r2, [r4, #16]
1a0025ec:	f8cd a000 	str.w	sl, [sp]
1a0025f0:	464b      	mov	r3, r9
1a0025f2:	aa03      	add	r2, sp, #12
1a0025f4:	4621      	mov	r1, r4
1a0025f6:	4640      	mov	r0, r8
1a0025f8:	f7ff fee2 	bl	1a0023c0 <_printf_common>
1a0025fc:	3001      	adds	r0, #1
1a0025fe:	d14c      	bne.n	1a00269a <_printf_i+0x1fe>
1a002600:	f04f 30ff 	mov.w	r0, #4294967295	; 0xffffffff
1a002604:	b004      	add	sp, #16
1a002606:	e8bd 87f0 	ldmia.w	sp!, {r4, r5, r6, r7, r8, r9, sl, pc}
1a00260a:	4835      	ldr	r0, [pc, #212]	; (1a0026e0 <_printf_i+0x244>)
1a00260c:	f881 7045 	strb.w	r7, [r1, #69]	; 0x45
1a002610:	6829      	ldr	r1, [r5, #0]
1a002612:	6823      	ldr	r3, [r4, #0]
1a002614:	f851 6b04 	ldr.w	r6, [r1], #4
1a002618:	6029      	str	r1, [r5, #0]
1a00261a:	061d      	lsls	r5, r3, #24
1a00261c:	d514      	bpl.n	1a002648 <_printf_i+0x1ac>
1a00261e:	07df      	lsls	r7, r3, #31
1a002620:	bf44      	itt	mi
1a002622:	f043 0320 	orrmi.w	r3, r3, #32
1a002626:	6023      	strmi	r3, [r4, #0]
1a002628:	b91e      	cbnz	r6, 1a002632 <_printf_i+0x196>
1a00262a:	6823      	ldr	r3, [r4, #0]
1a00262c:	f023 0320 	bic.w	r3, r3, #32
1a002630:	6023      	str	r3, [r4, #0]
1a002632:	2310      	movs	r3, #16
1a002634:	e7b0      	b.n	1a002598 <_printf_i+0xfc>
1a002636:	6823      	ldr	r3, [r4, #0]
1a002638:	f043 0320 	orr.w	r3, r3, #32
1a00263c:	6023      	str	r3, [r4, #0]
1a00263e:	2378      	movs	r3, #120	; 0x78
1a002640:	4828      	ldr	r0, [pc, #160]	; (1a0026e4 <_printf_i+0x248>)
1a002642:	f884 3045 	strb.w	r3, [r4, #69]	; 0x45
1a002646:	e7e3      	b.n	1a002610 <_printf_i+0x174>
1a002648:	0659      	lsls	r1, r3, #25
1a00264a:	bf48      	it	mi
1a00264c:	b2b6      	uxthmi	r6, r6
1a00264e:	e7e6      	b.n	1a00261e <_printf_i+0x182>
1a002650:	4615      	mov	r5, r2
1a002652:	e7bb      	b.n	1a0025cc <_printf_i+0x130>
1a002654:	682b      	ldr	r3, [r5, #0]
1a002656:	6826      	ldr	r6, [r4, #0]
1a002658:	6961      	ldr	r1, [r4, #20]
1a00265a:	1d18      	adds	r0, r3, #4
1a00265c:	6028      	str	r0, [r5, #0]
1a00265e:	0635      	lsls	r5, r6, #24
1a002660:	681b      	ldr	r3, [r3, #0]
1a002662:	d501      	bpl.n	1a002668 <_printf_i+0x1cc>
1a002664:	6019      	str	r1, [r3, #0]
1a002666:	e002      	b.n	1a00266e <_printf_i+0x1d2>
1a002668:	0670      	lsls	r0, r6, #25
1a00266a:	d5fb      	bpl.n	1a002664 <_printf_i+0x1c8>
1a00266c:	8019      	strh	r1, [r3, #0]
1a00266e:	2300      	movs	r3, #0
1a002670:	6123      	str	r3, [r4, #16]
1a002672:	4615      	mov	r5, r2
1a002674:	e7ba      	b.n	1a0025ec <_printf_i+0x150>
1a002676:	682b      	ldr	r3, [r5, #0]
1a002678:	1d1a      	adds	r2, r3, #4
1a00267a:	602a      	str	r2, [r5, #0]
1a00267c:	681d      	ldr	r5, [r3, #0]
1a00267e:	6862      	ldr	r2, [r4, #4]
1a002680:	2100      	movs	r1, #0
1a002682:	4628      	mov	r0, r5
1a002684:	f7ff fdf4 	bl	1a002270 <memchr>
1a002688:	b108      	cbz	r0, 1a00268e <_printf_i+0x1f2>
1a00268a:	1b40      	subs	r0, r0, r5
1a00268c:	6060      	str	r0, [r4, #4]
1a00268e:	6863      	ldr	r3, [r4, #4]
1a002690:	6123      	str	r3, [r4, #16]
1a002692:	2300      	movs	r3, #0
1a002694:	f884 3043 	strb.w	r3, [r4, #67]	; 0x43
1a002698:	e7a8      	b.n	1a0025ec <_printf_i+0x150>
1a00269a:	6923      	ldr	r3, [r4, #16]
1a00269c:	462a      	mov	r2, r5
1a00269e:	4649      	mov	r1, r9
1a0026a0:	4640      	mov	r0, r8
1a0026a2:	47d0      	blx	sl
1a0026a4:	3001      	adds	r0, #1
1a0026a6:	d0ab      	beq.n	1a002600 <_printf_i+0x164>
1a0026a8:	6823      	ldr	r3, [r4, #0]
1a0026aa:	079b      	lsls	r3, r3, #30
1a0026ac:	d413      	bmi.n	1a0026d6 <_printf_i+0x23a>
1a0026ae:	68e0      	ldr	r0, [r4, #12]
1a0026b0:	9b03      	ldr	r3, [sp, #12]
1a0026b2:	4298      	cmp	r0, r3
1a0026b4:	bfb8      	it	lt
1a0026b6:	4618      	movlt	r0, r3
1a0026b8:	e7a4      	b.n	1a002604 <_printf_i+0x168>
1a0026ba:	2301      	movs	r3, #1
1a0026bc:	4632      	mov	r2, r6
1a0026be:	4649      	mov	r1, r9
1a0026c0:	4640      	mov	r0, r8
1a0026c2:	47d0      	blx	sl
1a0026c4:	3001      	adds	r0, #1
1a0026c6:	d09b      	beq.n	1a002600 <_printf_i+0x164>
1a0026c8:	3501      	adds	r5, #1
1a0026ca:	68e3      	ldr	r3, [r4, #12]
1a0026cc:	9903      	ldr	r1, [sp, #12]
1a0026ce:	1a5b      	subs	r3, r3, r1
1a0026d0:	42ab      	cmp	r3, r5
1a0026d2:	dcf2      	bgt.n	1a0026ba <_printf_i+0x21e>
1a0026d4:	e7eb      	b.n	1a0026ae <_printf_i+0x212>
1a0026d6:	2500      	movs	r5, #0
1a0026d8:	f104 0619 	add.w	r6, r4, #25
1a0026dc:	e7f5      	b.n	1a0026ca <_printf_i+0x22e>
1a0026de:	bf00      	nop
1a0026e0:	1a002925 	.word	0x1a002925
1a0026e4:	1a002936 	.word	0x1a002936
1a0026e8:	4f525245 	.word	0x4f525245
1a0026ec:	564f2052 	.word	0x564f2052
1a0026f0:	55525245 	.word	0x55525245
1a0026f4:	000a0d4e 	.word	0x000a0d4e
1a0026f8:	4f525245 	.word	0x4f525245
1a0026fc:	41502052 	.word	0x41502052
1a002700:	59544952 	.word	0x59544952
1a002704:	00000a0d 	.word	0x00000a0d
1a002708:	4f525245 	.word	0x4f525245
1a00270c:	52462052 	.word	0x52462052
1a002710:	4e494d41 	.word	0x4e494d41
1a002714:	000a0d47 	.word	0x000a0d47
1a002718:	4f525245 	.word	0x4f525245
1a00271c:	52422052 	.word	0x52422052
1a002720:	0d4b4145 	.word	0x0d4b4145
1a002724:	0000000a 	.word	0x0000000a
1a002728:	4f525245 	.word	0x4f525245
1a00272c:	4e552052 	.word	0x4e552052
1a002730:	574f4e4b 	.word	0x574f4e4b
1a002734:	000a0d4e 	.word	0x000a0d4e
1a002738:	00007325 	.word	0x00007325

1a00273c <ExtRateIn>:
1a00273c:	00000000                                ....

1a002740 <GpioButtons>:
1a002740:	08000400 09010900                       ........

1a002748 <GpioLeds>:
1a002748:	01050005 0e000205 0c010b01              ............

1a002754 <GpioPorts>:
1a002754:	03030003 0f050403 05031005 07030603     ................
1a002764:	00000802                                ....

1a002768 <OscRateIn>:
1a002768:	00b71b00                                ....

1a00276c <InitClkStates>:
1a00276c:	01010f01                                ....

1a002770 <pinmuxing>:
1a002770:	00440002 00440102 00440202 00400a02     ..D...D...D...@.
1a002780:	00400b02 00400c02 00500001 00500101     ..@...@...P...P.
1a002790:	00500201 00500601 00500106 00500406     ..P...P...P...P.
1a0027a0:	00500506 00540706 00540806 00500906     ..P...T...T...P.
1a0027b0:	00500a06 00500b06 00500c06 00f0040f     ..P...P...P.....
1a0027c0:	00d50301 00d50401 00160107 00560207     ..............V.
1a0027d0:	00520302 00520402 00520509 00570609     ..R...R...R...W.
1a0027e0:	00570206 0f0f0f03 000000ff              ..W.........

1a0027ec <periph_to_base>:
1a0027ec:	00050000 0020000a 00090024 00400040     ...... .$...@.@.
1a0027fc:	00600005 000400a6 00c300c0 00e00002     ..`.............
1a00280c:	000100e0 01000100 01200003 00060120     .......... . ...
1a00281c:	01400140 0142000c 00190142 01620162     @.@...B.B...b.b.
1a00282c:	01820013 00120182 01a201a2 01c20011     ................
1a00283c:	001001c2 01e201e2 0202000f 000e0202     ................
1a00284c:	02220222 0223000d 001c0223              "."...#.#...

1a002858 <InitClkStates>:
1a002858:	00010100 00010909 0001090a 01010701     ................
1a002868:	00010902 00010906 0101090c 0001090d     ................
1a002878:	0001090e 0001090f 00010910 00010911     ................
1a002888:	00010912 00010913 00011114 00011119     ................
1a002898:	0001111a 0001111b                       ........

1a0028a0 <UART_BClock>:
1a0028a0:	01a201c2 01620182                       ......b.

1a0028a8 <UART_PClock>:
1a0028a8:	00820081 00a200a1                       ........

1a0028b0 <__sf_fake_stderr>:
	...

1a0028d0 <__sf_fake_stdin>:
	...

1a0028f0 <__sf_fake_stdout>:
	...

1a002910 <_global_impure_ptr>:
1a002910:	1000003c 2b302d23 6c680020 6665004c     <...#-0+ .hlL.ef
1a002920:	47464567 32313000 36353433 41393837     gEFG.0123456789A
1a002930:	45444342 31300046 35343332 39383736     BCDEF.0123456789
1a002940:	64636261 00006665                       abcdef..
